
./libc-test/entry-dynamic.exe:     file format elf64-littleriscv


Disassembly of section .plt:

000000000000b470 <.plt>:
    b470:	00052397          	auipc	t2,0x52
    b474:	41c30333          	sub	t1,t1,t3
    b478:	3883be03          	ld	t3,904(t2) # 5d7f8 <__TMC_END__>
    b47c:	fd430313          	addi	t1,t1,-44
    b480:	38838293          	addi	t0,t2,904
    b484:	00135313          	srli	t1,t1,0x1
    b488:	0082b283          	ld	t0,8(t0)
    b48c:	000e0067          	jr	t3

000000000000b490 <longjmp@plt>:
    b490:	00052e17          	auipc	t3,0x52
    b494:	378e3e03          	ld	t3,888(t3) # 5d808 <longjmp>
    b498:	000e0367          	jalr	t1,t3
    b49c:	00000013          	nop

000000000000b4a0 <tsearch@plt>:
    b4a0:	00052e17          	auipc	t3,0x52
    b4a4:	370e3e03          	ld	t3,880(t3) # 5d810 <tsearch>
    b4a8:	000e0367          	jalr	t1,t3
    b4ac:	00000013          	nop

000000000000b4b0 <clock_gettime@plt>:
    b4b0:	00052e17          	auipc	t3,0x52
    b4b4:	368e3e03          	ld	t3,872(t3) # 5d818 <clock_gettime>
    b4b8:	000e0367          	jalr	t1,t3
    b4bc:	00000013          	nop

000000000000b4c0 <strcpy@plt>:
    b4c0:	00052e17          	auipc	t3,0x52
    b4c4:	360e3e03          	ld	t3,864(t3) # 5d820 <strcpy>
    b4c8:	000e0367          	jalr	t1,t3
    b4cc:	00000013          	nop

000000000000b4d0 <sigsetjmp@plt>:
    b4d0:	00052e17          	auipc	t3,0x52
    b4d4:	358e3e03          	ld	t3,856(t3) # 5d828 <sigsetjmp>
    b4d8:	000e0367          	jalr	t1,t3
    b4dc:	00000013          	nop

000000000000b4e0 <unsetenv@plt>:
    b4e0:	00052e17          	auipc	t3,0x52
    b4e4:	350e3e03          	ld	t3,848(t3) # 5d830 <unsetenv>
    b4e8:	000e0367          	jalr	t1,t3
    b4ec:	00000013          	nop

000000000000b4f0 <pthread_barrier_destroy@plt>:
    b4f0:	00052e17          	auipc	t3,0x52
    b4f4:	348e3e03          	ld	t3,840(t3) # 5d838 <pthread_barrier_destroy>
    b4f8:	000e0367          	jalr	t1,t3
    b4fc:	00000013          	nop

000000000000b500 <sqrt@plt>:
    b500:	00052e17          	auipc	t3,0x52
    b504:	340e3e03          	ld	t3,832(t3) # 5d840 <sqrt>
    b508:	000e0367          	jalr	t1,t3
    b50c:	00000013          	nop

000000000000b510 <setjmp@plt>:
    b510:	00052e17          	auipc	t3,0x52
    b514:	338e3e03          	ld	t3,824(t3) # 5d848 <setjmp>
    b518:	000e0367          	jalr	t1,t3
    b51c:	00000013          	nop

000000000000b520 <pthread_mutex_timedlock@plt>:
    b520:	00052e17          	auipc	t3,0x52
    b524:	330e3e03          	ld	t3,816(t3) # 5d850 <pthread_mutex_timedlock>
    b528:	000e0367          	jalr	t1,t3
    b52c:	00000013          	nop

000000000000b530 <waitpid@plt>:
    b530:	00052e17          	auipc	t3,0x52
    b534:	328e3e03          	ld	t3,808(t3) # 5d858 <waitpid>
    b538:	000e0367          	jalr	t1,t3
    b53c:	00000013          	nop

000000000000b540 <tmpfile@plt>:
    b540:	00052e17          	auipc	t3,0x52
    b544:	320e3e03          	ld	t3,800(t3) # 5d860 <tmpfile>
    b548:	000e0367          	jalr	t1,t3
    b54c:	00000013          	nop

000000000000b550 <getrlimit@plt>:
    b550:	00052e17          	auipc	t3,0x52
    b554:	318e3e03          	ld	t3,792(t3) # 5d868 <getrlimit>
    b558:	000e0367          	jalr	t1,t3
    b55c:	00000013          	nop

000000000000b560 <pthread_cond_signal@plt>:
    b560:	00052e17          	auipc	t3,0x52
    b564:	310e3e03          	ld	t3,784(t3) # 5d870 <pthread_cond_signal>
    b568:	000e0367          	jalr	t1,t3
    b56c:	00000013          	nop

000000000000b570 <dlerror@plt>:
    b570:	00052e17          	auipc	t3,0x52
    b574:	308e3e03          	ld	t3,776(t3) # 5d878 <dlerror>
    b578:	000e0367          	jalr	t1,t3
    b57c:	00000013          	nop

000000000000b580 <sysconf@plt>:
    b580:	00052e17          	auipc	t3,0x52
    b584:	300e3e03          	ld	t3,768(t3) # 5d880 <sysconf>
    b588:	000e0367          	jalr	t1,t3
    b58c:	00000013          	nop

000000000000b590 <random@plt>:
    b590:	00052e17          	auipc	t3,0x52
    b594:	2f8e3e03          	ld	t3,760(t3) # 5d888 <random>
    b598:	000e0367          	jalr	t1,t3
    b59c:	00000013          	nop

000000000000b5a0 <connect@plt>:
    b5a0:	00052e17          	auipc	t3,0x52
    b5a4:	2f0e3e03          	ld	t3,752(t3) # 5d890 <connect>
    b5a8:	000e0367          	jalr	t1,t3
    b5ac:	00000013          	nop

000000000000b5b0 <ungetc@plt>:
    b5b0:	00052e17          	auipc	t3,0x52
    b5b4:	2e8e3e03          	ld	t3,744(t3) # 5d898 <ungetc>
    b5b8:	000e0367          	jalr	t1,t3
    b5bc:	00000013          	nop

000000000000b5c0 <pthread_create@plt>:
    b5c0:	00052e17          	auipc	t3,0x52
    b5c4:	2e0e3e03          	ld	t3,736(t3) # 5d8a0 <pthread_create>
    b5c8:	000e0367          	jalr	t1,t3
    b5cc:	00000013          	nop

000000000000b5d0 <sigemptyset@plt>:
    b5d0:	00052e17          	auipc	t3,0x52
    b5d4:	2d8e3e03          	ld	t3,728(t3) # 5d8a8 <sigemptyset>
    b5d8:	000e0367          	jalr	t1,t3
    b5dc:	00000013          	nop

000000000000b5e0 <pthread_getspecific@plt>:
    b5e0:	00052e17          	auipc	t3,0x52
    b5e4:	2d0e3e03          	ld	t3,720(t3) # 5d8b0 <pthread_getspecific>
    b5e8:	000e0367          	jalr	t1,t3
    b5ec:	00000013          	nop

000000000000b5f0 <pthread_rwlock_rdlock@plt>:
    b5f0:	00052e17          	auipc	t3,0x52
    b5f4:	2c8e3e03          	ld	t3,712(t3) # 5d8b8 <pthread_rwlock_rdlock>
    b5f8:	000e0367          	jalr	t1,t3
    b5fc:	00000013          	nop

000000000000b600 <strerror@plt>:
    b600:	00052e17          	auipc	t3,0x52
    b604:	2c0e3e03          	ld	t3,704(t3) # 5d8c0 <strerror>
    b608:	000e0367          	jalr	t1,t3
    b60c:	00000013          	nop

000000000000b610 <geteuid@plt>:
    b610:	00052e17          	auipc	t3,0x52
    b614:	2b8e3e03          	ld	t3,696(t3) # 5d8c8 <geteuid>
    b618:	000e0367          	jalr	t1,t3
    b61c:	00000013          	nop

000000000000b620 <inet_pton@plt>:
    b620:	00052e17          	auipc	t3,0x52
    b624:	2b0e3e03          	ld	t3,688(t3) # 5d8d0 <inet_pton>
    b628:	000e0367          	jalr	t1,t3
    b62c:	00000013          	nop

000000000000b630 <hsearch@plt>:
    b630:	00052e17          	auipc	t3,0x52
    b634:	2a8e3e03          	ld	t3,680(t3) # 5d8d8 <hsearch>
    b638:	000e0367          	jalr	t1,t3
    b63c:	00000013          	nop

000000000000b640 <pthread_exit@plt>:
    b640:	00052e17          	auipc	t3,0x52
    b644:	2a0e3e03          	ld	t3,672(t3) # 5d8e0 <pthread_exit>
    b648:	000e0367          	jalr	t1,t3
    b64c:	00000013          	nop

000000000000b650 <snprintf@plt>:
    b650:	00052e17          	auipc	t3,0x52
    b654:	298e3e03          	ld	t3,664(t3) # 5d8e8 <snprintf>
    b658:	000e0367          	jalr	t1,t3
    b65c:	00000013          	nop

000000000000b660 <syscall@plt>:
    b660:	00052e17          	auipc	t3,0x52
    b664:	290e3e03          	ld	t3,656(t3) # 5d8f0 <syscall>
    b668:	000e0367          	jalr	t1,t3
    b66c:	00000013          	nop

000000000000b670 <sem_timedwait@plt>:
    b670:	00052e17          	auipc	t3,0x52
    b674:	288e3e03          	ld	t3,648(t3) # 5d8f8 <sem_timedwait>
    b678:	000e0367          	jalr	t1,t3
    b67c:	00000013          	nop

000000000000b680 <munmap@plt>:
    b680:	00052e17          	auipc	t3,0x52
    b684:	280e3e03          	ld	t3,640(t3) # 5d900 <munmap>
    b688:	000e0367          	jalr	t1,t3
    b68c:	00000013          	nop

000000000000b690 <shm_open@plt>:
    b690:	00052e17          	auipc	t3,0x52
    b694:	278e3e03          	ld	t3,632(t3) # 5d908 <shm_open>
    b698:	000e0367          	jalr	t1,t3
    b69c:	00000013          	nop

000000000000b6a0 <atol@plt>:
    b6a0:	00052e17          	auipc	t3,0x52
    b6a4:	270e3e03          	ld	t3,624(t3) # 5d910 <atol>
    b6a8:	000e0367          	jalr	t1,t3
    b6ac:	00000013          	nop

000000000000b6b0 <pthread_condattr_getclock@plt>:
    b6b0:	00052e17          	auipc	t3,0x52
    b6b4:	268e3e03          	ld	t3,616(t3) # 5d918 <pthread_condattr_getclock>
    b6b8:	000e0367          	jalr	t1,t3
    b6bc:	00000013          	nop

000000000000b6c0 <getenv@plt>:
    b6c0:	00052e17          	auipc	t3,0x52
    b6c4:	260e3e03          	ld	t3,608(t3) # 5d920 <getenv>
    b6c8:	000e0367          	jalr	t1,t3
    b6cc:	00000013          	nop

000000000000b6d0 <wcslen@plt>:
    b6d0:	00052e17          	auipc	t3,0x52
    b6d4:	258e3e03          	ld	t3,600(t3) # 5d928 <wcslen>
    b6d8:	000e0367          	jalr	t1,t3
    b6dc:	00000013          	nop

000000000000b6e0 <iswcntrl@plt>:
    b6e0:	00052e17          	auipc	t3,0x52
    b6e4:	250e3e03          	ld	t3,592(t3) # 5d930 <iswcntrl>
    b6e8:	000e0367          	jalr	t1,t3
    b6ec:	00000013          	nop

000000000000b6f0 <iswpunct@plt>:
    b6f0:	00052e17          	auipc	t3,0x52
    b6f4:	248e3e03          	ld	t3,584(t3) # 5d938 <iswpunct>
    b6f8:	000e0367          	jalr	t1,t3
    b6fc:	00000013          	nop

000000000000b700 <strtold@plt>:
    b700:	00052e17          	auipc	t3,0x52
    b704:	240e3e03          	ld	t3,576(t3) # 5d940 <strtold>
    b708:	000e0367          	jalr	t1,t3
    b70c:	00000013          	nop

000000000000b710 <getegid@plt>:
    b710:	00052e17          	auipc	t3,0x52
    b714:	238e3e03          	ld	t3,568(t3) # 5d948 <getegid>
    b718:	000e0367          	jalr	t1,t3
    b71c:	00000013          	nop

000000000000b720 <iswalpha@plt>:
    b720:	00052e17          	auipc	t3,0x52
    b724:	230e3e03          	ld	t3,560(t3) # 5d950 <iswalpha>
    b728:	000e0367          	jalr	t1,t3
    b72c:	00000013          	nop

000000000000b730 <iswblank@plt>:
    b730:	00052e17          	auipc	t3,0x52
    b734:	228e3e03          	ld	t3,552(t3) # 5d958 <iswblank>
    b738:	000e0367          	jalr	t1,t3
    b73c:	00000013          	nop

000000000000b740 <memmem@plt>:
    b740:	00052e17          	auipc	t3,0x52
    b744:	220e3e03          	ld	t3,544(t3) # 5d960 <memmem>
    b748:	000e0367          	jalr	t1,t3
    b74c:	00000013          	nop

000000000000b750 <utimensat@plt>:
    b750:	00052e17          	auipc	t3,0x52
    b754:	218e3e03          	ld	t3,536(t3) # 5d968 <utimensat>
    b758:	000e0367          	jalr	t1,t3
    b75c:	00000013          	nop

000000000000b760 <pthread_condattr_init@plt>:
    b760:	00052e17          	auipc	t3,0x52
    b764:	210e3e03          	ld	t3,528(t3) # 5d970 <pthread_condattr_init>
    b768:	000e0367          	jalr	t1,t3
    b76c:	00000013          	nop

000000000000b770 <getpid@plt>:
    b770:	00052e17          	auipc	t3,0x52
    b774:	208e3e03          	ld	t3,520(t3) # 5d978 <getpid>
    b778:	000e0367          	jalr	t1,t3
    b77c:	00000013          	nop

000000000000b780 <qsort@plt>:
    b780:	00052e17          	auipc	t3,0x52
    b784:	200e3e03          	ld	t3,512(t3) # 5d980 <qsort>
    b788:	000e0367          	jalr	t1,t3
    b78c:	00000013          	nop

000000000000b790 <sqrtf@plt>:
    b790:	00052e17          	auipc	t3,0x52
    b794:	1f8e3e03          	ld	t3,504(t3) # 5d988 <sqrtf>
    b798:	000e0367          	jalr	t1,t3
    b79c:	00000013          	nop

000000000000b7a0 <fscanf@plt>:
    b7a0:	00052e17          	auipc	t3,0x52
    b7a4:	1f0e3e03          	ld	t3,496(t3) # 5d990 <fscanf>
    b7a8:	000e0367          	jalr	t1,t3
    b7ac:	00000013          	nop

000000000000b7b0 <__fpclassifyl@plt>:
    b7b0:	00052e17          	auipc	t3,0x52
    b7b4:	1e8e3e03          	ld	t3,488(t3) # 5d998 <__fpclassifyl>
    b7b8:	000e0367          	jalr	t1,t3
    b7bc:	00000013          	nop

000000000000b7c0 <fgets@plt>:
    b7c0:	00052e17          	auipc	t3,0x52
    b7c4:	1e0e3e03          	ld	t3,480(t3) # 5d9a0 <fgets>
    b7c8:	000e0367          	jalr	t1,t3
    b7cc:	00000013          	nop

000000000000b7d0 <dirname@plt>:
    b7d0:	00052e17          	auipc	t3,0x52
    b7d4:	1d8e3e03          	ld	t3,472(t3) # 5d9a8 <dirname>
    b7d8:	000e0367          	jalr	t1,t3
    b7dc:	00000013          	nop

000000000000b7e0 <iswxdigit@plt>:
    b7e0:	00052e17          	auipc	t3,0x52
    b7e4:	1d0e3e03          	ld	t3,464(t3) # 5d9b0 <iswxdigit>
    b7e8:	000e0367          	jalr	t1,t3
    b7ec:	00000013          	nop

000000000000b7f0 <pthread_key_delete@plt>:
    b7f0:	00052e17          	auipc	t3,0x52
    b7f4:	1c8e3e03          	ld	t3,456(t3) # 5d9b8 <pthread_key_delete>
    b7f8:	000e0367          	jalr	t1,t3
    b7fc:	00000013          	nop

000000000000b800 <_pthread_cleanup_pop@plt>:
    b800:	00052e17          	auipc	t3,0x52
    b804:	1c0e3e03          	ld	t3,448(t3) # 5d9c0 <_pthread_cleanup_pop>
    b808:	000e0367          	jalr	t1,t3
    b80c:	00000013          	nop

000000000000b810 <hcreate@plt>:
    b810:	00052e17          	auipc	t3,0x52
    b814:	1b8e3e03          	ld	t3,440(t3) # 5d9c8 <hcreate>
    b818:	000e0367          	jalr	t1,t3
    b81c:	00000013          	nop

000000000000b820 <getc@plt>:
    b820:	00052e17          	auipc	t3,0x52
    b824:	1b0e3e03          	ld	t3,432(t3) # 5d9d0 <getc>
    b828:	000e0367          	jalr	t1,t3
    b82c:	00000013          	nop

000000000000b830 <memcpy@plt>:
    b830:	00052e17          	auipc	t3,0x52
    b834:	1a8e3e03          	ld	t3,424(t3) # 5d9d8 <memcpy>
    b838:	000e0367          	jalr	t1,t3
    b83c:	00000013          	nop

000000000000b840 <pthread_cancel@plt>:
    b840:	00052e17          	auipc	t3,0x52
    b844:	1a0e3e03          	ld	t3,416(t3) # 5d9e0 <pthread_cancel>
    b848:	000e0367          	jalr	t1,t3
    b84c:	00000013          	nop

000000000000b850 <pthread_condattr_setclock@plt>:
    b850:	00052e17          	auipc	t3,0x52
    b854:	198e3e03          	ld	t3,408(t3) # 5d9e8 <pthread_condattr_setclock>
    b858:	000e0367          	jalr	t1,t3
    b85c:	00000013          	nop

000000000000b860 <setvbuf@plt>:
    b860:	00052e17          	auipc	t3,0x52
    b864:	190e3e03          	ld	t3,400(t3) # 5d9f0 <setvbuf>
    b868:	000e0367          	jalr	t1,t3
    b86c:	00000013          	nop

000000000000b870 <dup2@plt>:
    b870:	00052e17          	auipc	t3,0x52
    b874:	188e3e03          	ld	t3,392(t3) # 5d9f8 <dup2>
    b878:	000e0367          	jalr	t1,t3
    b87c:	00000013          	nop

000000000000b880 <__libc_current_sigrtmin@plt>:
    b880:	00052e17          	auipc	t3,0x52
    b884:	180e3e03          	ld	t3,384(t3) # 5da00 <__libc_current_sigrtmin>
    b888:	000e0367          	jalr	t1,t3
    b88c:	00000013          	nop

000000000000b890 <mbrtowc@plt>:
    b890:	00052e17          	auipc	t3,0x52
    b894:	178e3e03          	ld	t3,376(t3) # 5da08 <mbrtowc>
    b898:	000e0367          	jalr	t1,t3
    b89c:	00000013          	nop

000000000000b8a0 <sem_destroy@plt>:
    b8a0:	00052e17          	auipc	t3,0x52
    b8a4:	170e3e03          	ld	t3,368(t3) # 5da10 <sem_destroy>
    b8a8:	000e0367          	jalr	t1,t3
    b8ac:	00000013          	nop

000000000000b8b0 <iswlower@plt>:
    b8b0:	00052e17          	auipc	t3,0x52
    b8b4:	168e3e03          	ld	t3,360(t3) # 5da18 <iswlower>
    b8b8:	000e0367          	jalr	t1,t3
    b8bc:	00000013          	nop

000000000000b8c0 <feof@plt>:
    b8c0:	00052e17          	auipc	t3,0x52
    b8c4:	160e3e03          	ld	t3,352(t3) # 5da20 <feof>
    b8c8:	000e0367          	jalr	t1,t3
    b8cc:	00000013          	nop

000000000000b8d0 <wcstol@plt>:
    b8d0:	00052e17          	auipc	t3,0x52
    b8d4:	158e3e03          	ld	t3,344(t3) # 5da28 <wcstol>
    b8d8:	000e0367          	jalr	t1,t3
    b8dc:	00000013          	nop

000000000000b8e0 <malloc@plt>:
    b8e0:	00052e17          	auipc	t3,0x52
    b8e4:	150e3e03          	ld	t3,336(t3) # 5da30 <malloc>
    b8e8:	000e0367          	jalr	t1,t3
    b8ec:	00000013          	nop

000000000000b8f0 <iswspace@plt>:
    b8f0:	00052e17          	auipc	t3,0x52
    b8f4:	148e3e03          	ld	t3,328(t3) # 5da38 <iswspace>
    b8f8:	000e0367          	jalr	t1,t3
    b8fc:	00000013          	nop

000000000000b900 <siglongjmp@plt>:
    b900:	00052e17          	auipc	t3,0x52
    b904:	140e3e03          	ld	t3,320(t3) # 5da40 <siglongjmp>
    b908:	000e0367          	jalr	t1,t3
    b90c:	00000013          	nop

000000000000b910 <sleep@plt>:
    b910:	00052e17          	auipc	t3,0x52
    b914:	138e3e03          	ld	t3,312(t3) # 5da48 <sleep>
    b918:	000e0367          	jalr	t1,t3
    b91c:	00000013          	nop

000000000000b920 <btowc@plt>:
    b920:	00052e17          	auipc	t3,0x52
    b924:	130e3e03          	ld	t3,304(t3) # 5da50 <btowc>
    b928:	000e0367          	jalr	t1,t3
    b92c:	00000013          	nop

000000000000b930 <strtoll@plt>:
    b930:	00052e17          	auipc	t3,0x52
    b934:	128e3e03          	ld	t3,296(t3) # 5da58 <strtoll>
    b938:	000e0367          	jalr	t1,t3
    b93c:	00000013          	nop

000000000000b940 <vsnprintf@plt>:
    b940:	00052e17          	auipc	t3,0x52
    b944:	120e3e03          	ld	t3,288(t3) # 5da60 <vsnprintf>
    b948:	000e0367          	jalr	t1,t3
    b94c:	00000013          	nop

000000000000b950 <iconv_open@plt>:
    b950:	00052e17          	auipc	t3,0x52
    b954:	118e3e03          	ld	t3,280(t3) # 5da68 <iconv_open>
    b958:	000e0367          	jalr	t1,t3
    b95c:	00000013          	nop

000000000000b960 <open_memstream@plt>:
    b960:	00052e17          	auipc	t3,0x52
    b964:	110e3e03          	ld	t3,272(t3) # 5da70 <open_memstream>
    b968:	000e0367          	jalr	t1,t3
    b96c:	00000013          	nop

000000000000b970 <recvfrom@plt>:
    b970:	00052e17          	auipc	t3,0x52
    b974:	108e3e03          	ld	t3,264(t3) # 5da78 <recvfrom>
    b978:	000e0367          	jalr	t1,t3
    b97c:	00000013          	nop

000000000000b980 <sem_wait@plt>:
    b980:	00052e17          	auipc	t3,0x52
    b984:	100e3e03          	ld	t3,256(t3) # 5da80 <sem_wait>
    b988:	000e0367          	jalr	t1,t3
    b98c:	00000013          	nop

000000000000b990 <strtoul@plt>:
    b990:	00052e17          	auipc	t3,0x52
    b994:	0f8e3e03          	ld	t3,248(t3) # 5da88 <strtoul>
    b998:	000e0367          	jalr	t1,t3
    b99c:	00000013          	nop

000000000000b9a0 <sem_post@plt>:
    b9a0:	00052e17          	auipc	t3,0x52
    b9a4:	0f0e3e03          	ld	t3,240(t3) # 5da90 <sem_post>
    b9a8:	000e0367          	jalr	t1,t3
    b9ac:	00000013          	nop

000000000000b9b0 <wcsstr@plt>:
    b9b0:	00052e17          	auipc	t3,0x52
    b9b4:	0e8e3e03          	ld	t3,232(t3) # 5da98 <wcsstr>
    b9b8:	000e0367          	jalr	t1,t3
    b9bc:	00000013          	nop

000000000000b9c0 <pthread_rwlock_unlock@plt>:
    b9c0:	00052e17          	auipc	t3,0x52
    b9c4:	0e0e3e03          	ld	t3,224(t3) # 5daa0 <pthread_rwlock_unlock>
    b9c8:	000e0367          	jalr	t1,t3
    b9cc:	00000013          	nop

000000000000b9d0 <socket@plt>:
    b9d0:	00052e17          	auipc	t3,0x52
    b9d4:	0d8e3e03          	ld	t3,216(t3) # 5daa8 <socket>
    b9d8:	000e0367          	jalr	t1,t3
    b9dc:	00000013          	nop

000000000000b9e0 <fabsf@plt>:
    b9e0:	00052e17          	auipc	t3,0x52
    b9e4:	0d0e3e03          	ld	t3,208(t3) # 5dab0 <fabsf>
    b9e8:	000e0367          	jalr	t1,t3
    b9ec:	00000013          	nop

000000000000b9f0 <fflush@plt>:
    b9f0:	00052e17          	auipc	t3,0x52
    b9f4:	0c8e3e03          	ld	t3,200(t3) # 5dab8 <fflush>
    b9f8:	000e0367          	jalr	t1,t3
    b9fc:	00000013          	nop

000000000000ba00 <putenv@plt>:
    ba00:	00052e17          	auipc	t3,0x52
    ba04:	0c0e3e03          	ld	t3,192(t3) # 5dac0 <putenv>
    ba08:	000e0367          	jalr	t1,t3
    ba0c:	00000013          	nop

000000000000ba10 <lseek@plt>:
    ba10:	00052e17          	auipc	t3,0x52
    ba14:	0b8e3e03          	ld	t3,184(t3) # 5dac8 <lseek>
    ba18:	000e0367          	jalr	t1,t3
    ba1c:	00000013          	nop

000000000000ba20 <sigaddset@plt>:
    ba20:	00052e17          	auipc	t3,0x52
    ba24:	0b0e3e03          	ld	t3,176(t3) # 5dad0 <sigaddset>
    ba28:	000e0367          	jalr	t1,t3
    ba2c:	00000013          	nop

000000000000ba30 <clearenv@plt>:
    ba30:	00052e17          	auipc	t3,0x52
    ba34:	0a8e3e03          	ld	t3,168(t3) # 5dad8 <clearenv>
    ba38:	000e0367          	jalr	t1,t3
    ba3c:	00000013          	nop

000000000000ba40 <mmap@plt>:
    ba40:	00052e17          	auipc	t3,0x52
    ba44:	0a0e3e03          	ld	t3,160(t3) # 5dae0 <mmap>
    ba48:	000e0367          	jalr	t1,t3
    ba4c:	00000013          	nop

000000000000ba50 <dlclose@plt>:
    ba50:	00052e17          	auipc	t3,0x52
    ba54:	098e3e03          	ld	t3,152(t3) # 5dae8 <dlclose>
    ba58:	000e0367          	jalr	t1,t3
    ba5c:	00000013          	nop

000000000000ba60 <pthread_detach@plt>:
    ba60:	00052e17          	auipc	t3,0x52
    ba64:	090e3e03          	ld	t3,144(t3) # 5daf0 <pthread_detach>
    ba68:	000e0367          	jalr	t1,t3
    ba6c:	00000013          	nop

000000000000ba70 <abort@plt>:
    ba70:	00052e17          	auipc	t3,0x52
    ba74:	088e3e03          	ld	t3,136(t3) # 5daf8 <abort>
    ba78:	000e0367          	jalr	t1,t3
    ba7c:	00000013          	nop

000000000000ba80 <__stack_chk_fail@plt>:
    ba80:	00052e17          	auipc	t3,0x52
    ba84:	080e3e03          	ld	t3,128(t3) # 5db00 <__stack_chk_fail>
    ba88:	000e0367          	jalr	t1,t3
    ba8c:	00000013          	nop

000000000000ba90 <tdelete@plt>:
    ba90:	00052e17          	auipc	t3,0x52
    ba94:	078e3e03          	ld	t3,120(t3) # 5db08 <tdelete>
    ba98:	000e0367          	jalr	t1,t3
    ba9c:	00000013          	nop

000000000000baa0 <strtol@plt>:
    baa0:	00052e17          	auipc	t3,0x52
    baa4:	070e3e03          	ld	t3,112(t3) # 5db10 <strtol>
    baa8:	000e0367          	jalr	t1,t3
    baac:	00000013          	nop

000000000000bab0 <pipe@plt>:
    bab0:	00052e17          	auipc	t3,0x52
    bab4:	068e3e03          	ld	t3,104(t3) # 5db18 <pipe>
    bab8:	000e0367          	jalr	t1,t3
    babc:	00000013          	nop

000000000000bac0 <iswprint@plt>:
    bac0:	00052e17          	auipc	t3,0x52
    bac4:	060e3e03          	ld	t3,96(t3) # 5db20 <iswprint>
    bac8:	000e0367          	jalr	t1,t3
    bacc:	00000013          	nop

000000000000bad0 <newlocale@plt>:
    bad0:	00052e17          	auipc	t3,0x52
    bad4:	058e3e03          	ld	t3,88(t3) # 5db28 <newlocale>
    bad8:	000e0367          	jalr	t1,t3
    badc:	00000013          	nop

000000000000bae0 <accept@plt>:
    bae0:	00052e17          	auipc	t3,0x52
    bae4:	050e3e03          	ld	t3,80(t3) # 5db30 <accept>
    bae8:	000e0367          	jalr	t1,t3
    baec:	00000013          	nop

000000000000baf0 <pthread_setcancelstate@plt>:
    baf0:	00052e17          	auipc	t3,0x52
    baf4:	048e3e03          	ld	t3,72(t3) # 5db38 <pthread_setcancelstate>
    baf8:	000e0367          	jalr	t1,t3
    bafc:	00000013          	nop

000000000000bb00 <strrchr@plt>:
    bb00:	00052e17          	auipc	t3,0x52
    bb04:	040e3e03          	ld	t3,64(t3) # 5db40 <strrchr>
    bb08:	000e0367          	jalr	t1,t3
    bb0c:	00000013          	nop

000000000000bb10 <basename@plt>:
    bb10:	00052e17          	auipc	t3,0x52
    bb14:	038e3e03          	ld	t3,56(t3) # 5db48 <basename>
    bb18:	000e0367          	jalr	t1,t3
    bb1c:	00000013          	nop

000000000000bb20 <nanosleep@plt>:
    bb20:	00052e17          	auipc	t3,0x52
    bb24:	030e3e03          	ld	t3,48(t3) # 5db50 <nanosleep>
    bb28:	000e0367          	jalr	t1,t3
    bb2c:	00000013          	nop

000000000000bb30 <wcscpy@plt>:
    bb30:	00052e17          	auipc	t3,0x52
    bb34:	028e3e03          	ld	t3,40(t3) # 5db58 <wcscpy>
    bb38:	000e0367          	jalr	t1,t3
    bb3c:	00000013          	nop

000000000000bb40 <calloc@plt>:
    bb40:	00052e17          	auipc	t3,0x52
    bb44:	020e3e03          	ld	t3,32(t3) # 5db60 <calloc>
    bb48:	000e0367          	jalr	t1,t3
    bb4c:	00000013          	nop

000000000000bb50 <setrlimit@plt>:
    bb50:	00052e17          	auipc	t3,0x52
    bb54:	018e3e03          	ld	t3,24(t3) # 5db68 <setrlimit>
    bb58:	000e0367          	jalr	t1,t3
    bb5c:	00000013          	nop

000000000000bb60 <strtod@plt>:
    bb60:	00052e17          	auipc	t3,0x52
    bb64:	010e3e03          	ld	t3,16(t3) # 5db70 <strtod>
    bb68:	000e0367          	jalr	t1,t3
    bb6c:	00000013          	nop

000000000000bb70 <pthread_condattr_destroy@plt>:
    bb70:	00052e17          	auipc	t3,0x52
    bb74:	008e3e03          	ld	t3,8(t3) # 5db78 <pthread_condattr_destroy>
    bb78:	000e0367          	jalr	t1,t3
    bb7c:	00000013          	nop

000000000000bb80 <write@plt>:
    bb80:	00052e17          	auipc	t3,0x52
    bb84:	000e3e03          	ld	t3,0(t3) # 5db80 <write>
    bb88:	000e0367          	jalr	t1,t3
    bb8c:	00000013          	nop

000000000000bb90 <lrintf@plt>:
    bb90:	00052e17          	auipc	t3,0x52
    bb94:	ff8e3e03          	ld	t3,-8(t3) # 5db88 <lrintf>
    bb98:	000e0367          	jalr	t1,t3
    bb9c:	00000013          	nop

000000000000bba0 <__ctype_get_mb_cur_max@plt>:
    bba0:	00052e17          	auipc	t3,0x52
    bba4:	ff0e3e03          	ld	t3,-16(t3) # 5db90 <__ctype_get_mb_cur_max>
    bba8:	000e0367          	jalr	t1,t3
    bbac:	00000013          	nop

000000000000bbb0 <fstat@plt>:
    bbb0:	00052e17          	auipc	t3,0x52
    bbb4:	fe8e3e03          	ld	t3,-24(t3) # 5db98 <fstat>
    bbb8:	000e0367          	jalr	t1,t3
    bbbc:	00000013          	nop

000000000000bbc0 <fprintf@plt>:
    bbc0:	00052e17          	auipc	t3,0x52
    bbc4:	fe0e3e03          	ld	t3,-32(t3) # 5dba0 <fprintf>
    bbc8:	000e0367          	jalr	t1,t3
    bbcc:	00000013          	nop

000000000000bbd0 <iswgraph@plt>:
    bbd0:	00052e17          	auipc	t3,0x52
    bbd4:	fd8e3e03          	ld	t3,-40(t3) # 5dba8 <iswgraph>
    bbd8:	000e0367          	jalr	t1,t3
    bbdc:	00000013          	nop

000000000000bbe0 <lrint@plt>:
    bbe0:	00052e17          	auipc	t3,0x52
    bbe4:	fd0e3e03          	ld	t3,-48(t3) # 5dbb0 <lrint>
    bbe8:	000e0367          	jalr	t1,t3
    bbec:	00000013          	nop

000000000000bbf0 <bind@plt>:
    bbf0:	00052e17          	auipc	t3,0x52
    bbf4:	fc8e3e03          	ld	t3,-56(t3) # 5dbb8 <bind>
    bbf8:	000e0367          	jalr	t1,t3
    bbfc:	00000013          	nop

000000000000bc00 <inet_addr@plt>:
    bc00:	00052e17          	auipc	t3,0x52
    bc04:	fc0e3e03          	ld	t3,-64(t3) # 5dbc0 <inet_addr>
    bc08:	000e0367          	jalr	t1,t3
    bc0c:	00000013          	nop

000000000000bc10 <pthread_cond_broadcast@plt>:
    bc10:	00052e17          	auipc	t3,0x52
    bc14:	fb8e3e03          	ld	t3,-72(t3) # 5dbc8 <pthread_cond_broadcast>
    bc18:	000e0367          	jalr	t1,t3
    bc1c:	00000013          	nop

000000000000bc20 <pthread_once@plt>:
    bc20:	00052e17          	auipc	t3,0x52
    bc24:	fb0e3e03          	ld	t3,-80(t3) # 5dbd0 <pthread_once>
    bc28:	000e0367          	jalr	t1,t3
    bc2c:	00000013          	nop

000000000000bc30 <swprintf@plt>:
    bc30:	00052e17          	auipc	t3,0x52
    bc34:	fa8e3e03          	ld	t3,-88(t3) # 5dbd8 <swprintf>
    bc38:	000e0367          	jalr	t1,t3
    bc3c:	00000013          	nop

000000000000bc40 <fseeko@plt>:
    bc40:	00052e17          	auipc	t3,0x52
    bc44:	fa0e3e03          	ld	t3,-96(t3) # 5dbe0 <fseeko>
    bc48:	000e0367          	jalr	t1,t3
    bc4c:	00000013          	nop

000000000000bc50 <setsockopt@plt>:
    bc50:	00052e17          	auipc	t3,0x52
    bc54:	f98e3e03          	ld	t3,-104(t3) # 5dbe8 <setsockopt>
    bc58:	000e0367          	jalr	t1,t3
    bc5c:	00000013          	nop

000000000000bc60 <fseek@plt>:
    bc60:	00052e17          	auipc	t3,0x52
    bc64:	f90e3e03          	ld	t3,-112(t3) # 5dbf0 <fseek>
    bc68:	000e0367          	jalr	t1,t3
    bc6c:	00000013          	nop

000000000000bc70 <nl_langinfo@plt>:
    bc70:	00052e17          	auipc	t3,0x52
    bc74:	f88e3e03          	ld	t3,-120(t3) # 5dbf8 <nl_langinfo>
    bc78:	000e0367          	jalr	t1,t3
    bc7c:	00000013          	nop

000000000000bc80 <setstate@plt>:
    bc80:	00052e17          	auipc	t3,0x52
    bc84:	f80e3e03          	ld	t3,-128(t3) # 5dc00 <setstate>
    bc88:	000e0367          	jalr	t1,t3
    bc8c:	00000013          	nop

000000000000bc90 <pthread_key_create@plt>:
    bc90:	00052e17          	auipc	t3,0x52
    bc94:	f78e3e03          	ld	t3,-136(t3) # 5dc08 <pthread_key_create>
    bc98:	000e0367          	jalr	t1,t3
    bc9c:	00000013          	nop

000000000000bca0 <tfind@plt>:
    bca0:	00052e17          	auipc	t3,0x52
    bca4:	f70e3e03          	ld	t3,-144(t3) # 5dc10 <tfind>
    bca8:	000e0367          	jalr	t1,t3
    bcac:	00000013          	nop

000000000000bcb0 <lfind@plt>:
    bcb0:	00052e17          	auipc	t3,0x52
    bcb4:	f68e3e03          	ld	t3,-152(t3) # 5dc18 <lfind>
    bcb8:	000e0367          	jalr	t1,t3
    bcbc:	00000013          	nop

000000000000bcc0 <sem_init@plt>:
    bcc0:	00052e17          	auipc	t3,0x52
    bcc4:	f60e3e03          	ld	t3,-160(t3) # 5dc20 <sem_init>
    bcc8:	000e0367          	jalr	t1,t3
    bccc:	00000013          	nop

000000000000bcd0 <mktime@plt>:
    bcd0:	00052e17          	auipc	t3,0x52
    bcd4:	f58e3e03          	ld	t3,-168(t3) # 5dc28 <mktime>
    bcd8:	000e0367          	jalr	t1,t3
    bcdc:	00000013          	nop

000000000000bce0 <ferror@plt>:
    bce0:	00052e17          	auipc	t3,0x52
    bce4:	f50e3e03          	ld	t3,-176(t3) # 5dc30 <ferror>
    bce8:	000e0367          	jalr	t1,t3
    bcec:	00000013          	nop

000000000000bcf0 <strstr@plt>:
    bcf0:	00052e17          	auipc	t3,0x52
    bcf4:	f48e3e03          	ld	t3,-184(t3) # 5dc38 <strstr>
    bcf8:	000e0367          	jalr	t1,t3
    bcfc:	00000013          	nop

000000000000bd00 <sin@plt>:
    bd00:	00052e17          	auipc	t3,0x52
    bd04:	f40e3e03          	ld	t3,-192(t3) # 5dc40 <sin>
    bd08:	000e0367          	jalr	t1,t3
    bd0c:	00000013          	nop

000000000000bd10 <ftello@plt>:
    bd10:	00052e17          	auipc	t3,0x52
    bd14:	f38e3e03          	ld	t3,-200(t3) # 5dc48 <ftello>
    bd18:	000e0367          	jalr	t1,t3
    bd1c:	00000013          	nop

000000000000bd20 <read@plt>:
    bd20:	00052e17          	auipc	t3,0x52
    bd24:	f30e3e03          	ld	t3,-208(t3) # 5dc50 <read>
    bd28:	000e0367          	jalr	t1,t3
    bd2c:	00000013          	nop

000000000000bd30 <strlcpy@plt>:
    bd30:	00052e17          	auipc	t3,0x52
    bd34:	f28e3e03          	ld	t3,-216(t3) # 5dc58 <strlcpy>
    bd38:	000e0367          	jalr	t1,t3
    bd3c:	00000013          	nop

000000000000bd40 <strncmp@plt>:
    bd40:	00052e17          	auipc	t3,0x52
    bd44:	f20e3e03          	ld	t3,-224(t3) # 5dc60 <strncmp>
    bd48:	000e0367          	jalr	t1,t3
    bd4c:	00000013          	nop

000000000000bd50 <dlopen@plt>:
    bd50:	00052e17          	auipc	t3,0x52
    bd54:	f18e3e03          	ld	t3,-232(t3) # 5dc68 <dlopen>
    bd58:	000e0367          	jalr	t1,t3
    bd5c:	00000013          	nop

000000000000bd60 <wcsrtombs@plt>:
    bd60:	00052e17          	auipc	t3,0x52
    bd64:	f10e3e03          	ld	t3,-240(t3) # 5dc70 <wcsrtombs>
    bd68:	000e0367          	jalr	t1,t3
    bd6c:	00000013          	nop

000000000000bd70 <pthread_rwlock_wrlock@plt>:
    bd70:	00052e17          	auipc	t3,0x52
    bd74:	f08e3e03          	ld	t3,-248(t3) # 5dc78 <pthread_rwlock_wrlock>
    bd78:	000e0367          	jalr	t1,t3
    bd7c:	00000013          	nop

000000000000bd80 <pow@plt>:
    bd80:	00052e17          	auipc	t3,0x52
    bd84:	f00e3e03          	ld	t3,-256(t3) # 5dc80 <pow>
    bd88:	000e0367          	jalr	t1,t3
    bd8c:	00000013          	nop

000000000000bd90 <strncpy@plt>:
    bd90:	00052e17          	auipc	t3,0x52
    bd94:	ef8e3e03          	ld	t3,-264(t3) # 5dc88 <strncpy>
    bd98:	000e0367          	jalr	t1,t3
    bd9c:	00000013          	nop

000000000000bda0 <unlink@plt>:
    bda0:	00052e17          	auipc	t3,0x52
    bda4:	ef0e3e03          	ld	t3,-272(t3) # 5dc90 <unlink>
    bda8:	000e0367          	jalr	t1,t3
    bdac:	00000013          	nop

000000000000bdb0 <setenv@plt>:
    bdb0:	00052e17          	auipc	t3,0x52
    bdb4:	ee8e3e03          	ld	t3,-280(t3) # 5dc98 <setenv>
    bdb8:	000e0367          	jalr	t1,t3
    bdbc:	00000013          	nop

000000000000bdc0 <htonl@plt>:
    bdc0:	00052e17          	auipc	t3,0x52
    bdc4:	ee0e3e03          	ld	t3,-288(t3) # 5dca0 <htonl>
    bdc8:	000e0367          	jalr	t1,t3
    bdcc:	00000013          	nop

000000000000bdd0 <sendto@plt>:
    bdd0:	00052e17          	auipc	t3,0x52
    bdd4:	ed8e3e03          	ld	t3,-296(t3) # 5dca8 <sendto>
    bdd8:	000e0367          	jalr	t1,t3
    bddc:	00000013          	nop

000000000000bde0 <pthread_cond_init@plt>:
    bde0:	00052e17          	auipc	t3,0x52
    bde4:	ed0e3e03          	ld	t3,-304(t3) # 5dcb0 <pthread_cond_init>
    bde8:	000e0367          	jalr	t1,t3
    bdec:	00000013          	nop

000000000000bdf0 <remque@plt>:
    bdf0:	00052e17          	auipc	t3,0x52
    bdf4:	ec8e3e03          	ld	t3,-312(t3) # 5dcb8 <remque>
    bdf8:	000e0367          	jalr	t1,t3
    bdfc:	00000013          	nop

000000000000be00 <strtok@plt>:
    be00:	00052e17          	auipc	t3,0x52
    be04:	ec0e3e03          	ld	t3,-320(t3) # 5dcc0 <strtok>
    be08:	000e0367          	jalr	t1,t3
    be0c:	00000013          	nop

000000000000be10 <memcmp@plt>:
    be10:	00052e17          	auipc	t3,0x52
    be14:	eb8e3e03          	ld	t3,-328(t3) # 5dcc8 <memcmp>
    be18:	000e0367          	jalr	t1,t3
    be1c:	00000013          	nop

000000000000be20 <listen@plt>:
    be20:	00052e17          	auipc	t3,0x52
    be24:	eb0e3e03          	ld	t3,-336(t3) # 5dcd0 <listen>
    be28:	000e0367          	jalr	t1,t3
    be2c:	00000013          	nop

000000000000be30 <crypt@plt>:
    be30:	00052e17          	auipc	t3,0x52
    be34:	ea8e3e03          	ld	t3,-344(t3) # 5dcd8 <crypt>
    be38:	000e0367          	jalr	t1,t3
    be3c:	00000013          	nop

000000000000be40 <fdopen@plt>:
    be40:	00052e17          	auipc	t3,0x52
    be44:	ea0e3e03          	ld	t3,-352(t3) # 5dce0 <fdopen>
    be48:	000e0367          	jalr	t1,t3
    be4c:	00000013          	nop

000000000000be50 <fork@plt>:
    be50:	00052e17          	auipc	t3,0x52
    be54:	e98e3e03          	ld	t3,-360(t3) # 5dce8 <fork>
    be58:	000e0367          	jalr	t1,t3
    be5c:	00000013          	nop

000000000000be60 <sscanf@plt>:
    be60:	00052e17          	auipc	t3,0x52
    be64:	e90e3e03          	ld	t3,-368(t3) # 5dcf0 <sscanf>
    be68:	000e0367          	jalr	t1,t3
    be6c:	00000013          	nop

000000000000be70 <statvfs@plt>:
    be70:	00052e17          	auipc	t3,0x52
    be74:	e88e3e03          	ld	t3,-376(t3) # 5dcf8 <statvfs>
    be78:	000e0367          	jalr	t1,t3
    be7c:	00000013          	nop

000000000000be80 <wcstoul@plt>:
    be80:	00052e17          	auipc	t3,0x52
    be84:	e80e3e03          	ld	t3,-384(t3) # 5dd00 <wcstoul>
    be88:	000e0367          	jalr	t1,t3
    be8c:	00000013          	nop

000000000000be90 <strncat@plt>:
    be90:	00052e17          	auipc	t3,0x52
    be94:	e78e3e03          	ld	t3,-392(t3) # 5dd08 <strncat>
    be98:	000e0367          	jalr	t1,t3
    be9c:	00000013          	nop

000000000000bea0 <sem_trywait@plt>:
    bea0:	00052e17          	auipc	t3,0x52
    bea4:	e70e3e03          	ld	t3,-400(t3) # 5dd10 <sem_trywait>
    bea8:	000e0367          	jalr	t1,t3
    beac:	00000013          	nop

000000000000beb0 <wcschr@plt>:
    beb0:	00052e17          	auipc	t3,0x52
    beb4:	e68e3e03          	ld	t3,-408(t3) # 5dd18 <wcschr>
    beb8:	000e0367          	jalr	t1,t3
    bebc:	00000013          	nop

000000000000bec0 <fread@plt>:
    bec0:	00052e17          	auipc	t3,0x52
    bec4:	e60e3e03          	ld	t3,-416(t3) # 5dd20 <fread>
    bec8:	000e0367          	jalr	t1,t3
    becc:	00000013          	nop

000000000000bed0 <fwscanf@plt>:
    bed0:	00052e17          	auipc	t3,0x52
    bed4:	e58e3e03          	ld	t3,-424(t3) # 5dd28 <fwscanf>
    bed8:	000e0367          	jalr	t1,t3
    bedc:	00000013          	nop

000000000000bee0 <dlsym@plt>:
    bee0:	00052e17          	auipc	t3,0x52
    bee4:	e50e3e03          	ld	t3,-432(t3) # 5dd30 <dlsym>
    bee8:	000e0367          	jalr	t1,t3
    beec:	00000013          	nop

000000000000bef0 <strdup@plt>:
    bef0:	00052e17          	auipc	t3,0x52
    bef4:	e48e3e03          	ld	t3,-440(t3) # 5dd38 <strdup>
    bef8:	000e0367          	jalr	t1,t3
    befc:	00000013          	nop

000000000000bf00 <strtoull@plt>:
    bf00:	00052e17          	auipc	t3,0x52
    bf04:	e40e3e03          	ld	t3,-448(t3) # 5dd40 <strtoull>
    bf08:	000e0367          	jalr	t1,t3
    bf0c:	00000013          	nop

000000000000bf10 <regcomp@plt>:
    bf10:	00052e17          	auipc	t3,0x52
    bf14:	e38e3e03          	ld	t3,-456(t3) # 5dd48 <regcomp>
    bf18:	000e0367          	jalr	t1,t3
    bf1c:	00000013          	nop

000000000000bf20 <uselocale@plt>:
    bf20:	00052e17          	auipc	t3,0x52
    bf24:	e30e3e03          	ld	t3,-464(t3) # 5dd50 <uselocale>
    bf28:	000e0367          	jalr	t1,t3
    bf2c:	00000013          	nop

000000000000bf30 <memset@plt>:
    bf30:	00052e17          	auipc	t3,0x52
    bf34:	e28e3e03          	ld	t3,-472(t3) # 5dd58 <memset>
    bf38:	000e0367          	jalr	t1,t3
    bf3c:	00000013          	nop

000000000000bf40 <fnmatch@plt>:
    bf40:	00052e17          	auipc	t3,0x52
    bf44:	e20e3e03          	ld	t3,-480(t3) # 5dd60 <fnmatch>
    bf48:	000e0367          	jalr	t1,t3
    bf4c:	00000013          	nop

000000000000bf50 <iconv_close@plt>:
    bf50:	00052e17          	auipc	t3,0x52
    bf54:	e18e3e03          	ld	t3,-488(t3) # 5dd68 <iconv_close>
    bf58:	000e0367          	jalr	t1,t3
    bf5c:	00000013          	nop

000000000000bf60 <ftell@plt>:
    bf60:	00052e17          	auipc	t3,0x52
    bf64:	e10e3e03          	ld	t3,-496(t3) # 5dd70 <ftell>
    bf68:	000e0367          	jalr	t1,t3
    bf6c:	00000013          	nop

000000000000bf70 <strlcat@plt>:
    bf70:	00052e17          	auipc	t3,0x52
    bf74:	e08e3e03          	ld	t3,-504(t3) # 5dd78 <strlcat>
    bf78:	000e0367          	jalr	t1,t3
    bf7c:	00000013          	nop

000000000000bf80 <mbsrtowcs@plt>:
    bf80:	00052e17          	auipc	t3,0x52
    bf84:	e00e3e03          	ld	t3,-512(t3) # 5dd80 <mbsrtowcs>
    bf88:	000e0367          	jalr	t1,t3
    bf8c:	00000013          	nop

000000000000bf90 <pthread_barrier_init@plt>:
    bf90:	00052e17          	auipc	t3,0x52
    bf94:	df8e3e03          	ld	t3,-520(t3) # 5dd88 <pthread_barrier_init>
    bf98:	000e0367          	jalr	t1,t3
    bf9c:	00000013          	nop

000000000000bfa0 <initstate@plt>:
    bfa0:	00052e17          	auipc	t3,0x52
    bfa4:	df0e3e03          	ld	t3,-528(t3) # 5dd90 <initstate>
    bfa8:	000e0367          	jalr	t1,t3
    bfac:	00000013          	nop

000000000000bfb0 <fclose@plt>:
    bfb0:	00052e17          	auipc	t3,0x52
    bfb4:	de8e3e03          	ld	t3,-536(t3) # 5dd98 <fclose>
    bfb8:	000e0367          	jalr	t1,t3
    bfbc:	00000013          	nop

000000000000bfc0 <inet_ntoa@plt>:
    bfc0:	00052e17          	auipc	t3,0x52
    bfc4:	de0e3e03          	ld	t3,-544(t3) # 5dda0 <inet_ntoa>
    bfc8:	000e0367          	jalr	t1,t3
    bfcc:	00000013          	nop

000000000000bfd0 <getppid@plt>:
    bfd0:	00052e17          	auipc	t3,0x52
    bfd4:	dd8e3e03          	ld	t3,-552(t3) # 5dda8 <getppid>
    bfd8:	000e0367          	jalr	t1,t3
    bfdc:	00000013          	nop

000000000000bfe0 <regexec@plt>:
    bfe0:	00052e17          	auipc	t3,0x52
    bfe4:	dd0e3e03          	ld	t3,-560(t3) # 5ddb0 <regexec>
    bfe8:	000e0367          	jalr	t1,t3
    bfec:	00000013          	nop

000000000000bff0 <time@plt>:
    bff0:	00052e17          	auipc	t3,0x52
    bff4:	dc8e3e03          	ld	t3,-568(t3) # 5ddb8 <time>
    bff8:	000e0367          	jalr	t1,t3
    bffc:	00000013          	nop

000000000000c000 <wcsncpy@plt>:
    c000:	00052e17          	auipc	t3,0x52
    c004:	dc0e3e03          	ld	t3,-576(t3) # 5ddc0 <wcsncpy>
    c008:	000e0367          	jalr	t1,t3
    c00c:	00000013          	nop

000000000000c010 <pthread_mutexattr_setpshared@plt>:
    c010:	00052e17          	auipc	t3,0x52
    c014:	db8e3e03          	ld	t3,-584(t3) # 5ddc8 <pthread_mutexattr_setpshared>
    c018:	000e0367          	jalr	t1,t3
    c01c:	00000013          	nop

000000000000c020 <__signbitl@plt>:
    c020:	00052e17          	auipc	t3,0x52
    c024:	db0e3e03          	ld	t3,-592(t3) # 5ddd0 <__signbitl>
    c028:	000e0367          	jalr	t1,t3
    c02c:	00000013          	nop

000000000000c030 <hdestroy@plt>:
    c030:	00052e17          	auipc	t3,0x52
    c034:	da8e3e03          	ld	t3,-600(t3) # 5ddd8 <hdestroy>
    c038:	000e0367          	jalr	t1,t3
    c03c:	00000013          	nop

000000000000c040 <putc@plt>:
    c040:	00052e17          	auipc	t3,0x52
    c044:	da0e3e03          	ld	t3,-608(t3) # 5dde0 <putc>
    c048:	000e0367          	jalr	t1,t3
    c04c:	00000013          	nop

000000000000c050 <shm_unlink@plt>:
    c050:	00052e17          	auipc	t3,0x52
    c054:	d98e3e03          	ld	t3,-616(t3) # 5dde8 <shm_unlink>
    c058:	000e0367          	jalr	t1,t3
    c05c:	00000013          	nop

000000000000c060 <strcmp@plt>:
    c060:	00052e17          	auipc	t3,0x52
    c064:	d90e3e03          	ld	t3,-624(t3) # 5ddf0 <strcmp>
    c068:	000e0367          	jalr	t1,t3
    c06c:	00000013          	nop

000000000000c070 <pthread_mutex_unlock@plt>:
    c070:	00052e17          	auipc	t3,0x52
    c074:	d88e3e03          	ld	t3,-632(t3) # 5ddf8 <pthread_mutex_unlock>
    c078:	000e0367          	jalr	t1,t3
    c07c:	00000013          	nop

000000000000c080 <lrand48@plt>:
    c080:	00052e17          	auipc	t3,0x52
    c084:	d80e3e03          	ld	t3,-640(t3) # 5de00 <lrand48>
    c088:	000e0367          	jalr	t1,t3
    c08c:	00000013          	nop

000000000000c090 <dup@plt>:
    c090:	00052e17          	auipc	t3,0x52
    c094:	d78e3e03          	ld	t3,-648(t3) # 5de08 <dup>
    c098:	000e0367          	jalr	t1,t3
    c09c:	00000013          	nop

000000000000c0a0 <pthread_barrier_wait@plt>:
    c0a0:	00052e17          	auipc	t3,0x52
    c0a4:	d70e3e03          	ld	t3,-656(t3) # 5de10 <pthread_barrier_wait>
    c0a8:	000e0367          	jalr	t1,t3
    c0ac:	00000013          	nop

000000000000c0b0 <copysign@plt>:
    c0b0:	00052e17          	auipc	t3,0x52
    c0b4:	d68e3e03          	ld	t3,-664(t3) # 5de18 <copysign>
    c0b8:	000e0367          	jalr	t1,t3
    c0bc:	00000013          	nop

000000000000c0c0 <futimens@plt>:
    c0c0:	00052e17          	auipc	t3,0x52
    c0c4:	d60e3e03          	ld	t3,-672(t3) # 5de20 <futimens>
    c0c8:	000e0367          	jalr	t1,t3
    c0cc:	00000013          	nop

000000000000c0d0 <copysignf@plt>:
    c0d0:	00052e17          	auipc	t3,0x52
    c0d4:	d58e3e03          	ld	t3,-680(t3) # 5de28 <copysignf>
    c0d8:	000e0367          	jalr	t1,t3
    c0dc:	00000013          	nop

000000000000c0e0 <fgetc@plt>:
    c0e0:	00052e17          	auipc	t3,0x52
    c0e4:	d50e3e03          	ld	t3,-688(t3) # 5de30 <fgetc>
    c0e8:	000e0367          	jalr	t1,t3
    c0ec:	00000013          	nop

000000000000c0f0 <sprintf@plt>:
    c0f0:	00052e17          	auipc	t3,0x52
    c0f4:	d48e3e03          	ld	t3,-696(t3) # 5de38 <sprintf>
    c0f8:	000e0367          	jalr	t1,t3
    c0fc:	00000013          	nop

000000000000c100 <strtof@plt>:
    c100:	00052e17          	auipc	t3,0x52
    c104:	d40e3e03          	ld	t3,-704(t3) # 5de40 <strtof>
    c108:	000e0367          	jalr	t1,t3
    c10c:	00000013          	nop

000000000000c110 <insque@plt>:
    c110:	00052e17          	auipc	t3,0x52
    c114:	d38e3e03          	ld	t3,-712(t3) # 5de48 <insque>
    c118:	000e0367          	jalr	t1,t3
    c11c:	00000013          	nop

000000000000c120 <strcspn@plt>:
    c120:	00052e17          	auipc	t3,0x52
    c124:	d30e3e03          	ld	t3,-720(t3) # 5de50 <strcspn>
    c128:	000e0367          	jalr	t1,t3
    c12c:	00000013          	nop

000000000000c130 <setlocale@plt>:
    c130:	00052e17          	auipc	t3,0x52
    c134:	d28e3e03          	ld	t3,-728(t3) # 5de58 <setlocale>
    c138:	000e0367          	jalr	t1,t3
    c13c:	00000013          	nop

000000000000c140 <regerror@plt>:
    c140:	00052e17          	auipc	t3,0x52
    c144:	d20e3e03          	ld	t3,-736(t3) # 5de60 <regerror>
    c148:	000e0367          	jalr	t1,t3
    c14c:	00000013          	nop

000000000000c150 <mkstemp@plt>:
    c150:	00052e17          	auipc	t3,0x52
    c154:	d18e3e03          	ld	t3,-744(t3) # 5de68 <mkstemp>
    c158:	000e0367          	jalr	t1,t3
    c15c:	00000013          	nop

000000000000c160 <scalbn@plt>:
    c160:	00052e17          	auipc	t3,0x52
    c164:	d10e3e03          	ld	t3,-752(t3) # 5de70 <scalbn>
    c168:	000e0367          	jalr	t1,t3
    c16c:	00000013          	nop

000000000000c170 <iconv@plt>:
    c170:	00052e17          	auipc	t3,0x52
    c174:	d08e3e03          	ld	t3,-760(t3) # 5de78 <iconv>
    c178:	000e0367          	jalr	t1,t3
    c17c:	00000013          	nop

000000000000c180 <srandom@plt>:
    c180:	00052e17          	auipc	t3,0x52
    c184:	d00e3e03          	ld	t3,-768(t3) # 5de80 <srandom>
    c188:	000e0367          	jalr	t1,t3
    c18c:	00000013          	nop

000000000000c190 <getpwnam_r@plt>:
    c190:	00052e17          	auipc	t3,0x52
    c194:	cf8e3e03          	ld	t3,-776(t3) # 5de88 <getpwnam_r>
    c198:	000e0367          	jalr	t1,t3
    c19c:	00000013          	nop

000000000000c1a0 <pthread_rwlock_trywrlock@plt>:
    c1a0:	00052e17          	auipc	t3,0x52
    c1a4:	cf0e3e03          	ld	t3,-784(t3) # 5de90 <pthread_rwlock_trywrlock>
    c1a8:	000e0367          	jalr	t1,t3
    c1ac:	00000013          	nop

000000000000c1b0 <pthread_rwlock_tryrdlock@plt>:
    c1b0:	00052e17          	auipc	t3,0x52
    c1b4:	ce8e3e03          	ld	t3,-792(t3) # 5de98 <pthread_rwlock_tryrdlock>
    c1b8:	000e0367          	jalr	t1,t3
    c1bc:	00000013          	nop

000000000000c1c0 <sigismember@plt>:
    c1c0:	00052e17          	auipc	t3,0x52
    c1c4:	ce0e3e03          	ld	t3,-800(t3) # 5dea0 <sigismember>
    c1c8:	000e0367          	jalr	t1,t3
    c1cc:	00000013          	nop

000000000000c1d0 <fputc@plt>:
    c1d0:	00052e17          	auipc	t3,0x52
    c1d4:	cd8e3e03          	ld	t3,-808(t3) # 5dea8 <fputc>
    c1d8:	000e0367          	jalr	t1,t3
    c1dc:	00000013          	nop

000000000000c1e0 <pread@plt>:
    c1e0:	00052e17          	auipc	t3,0x52
    c1e4:	cd0e3e03          	ld	t3,-816(t3) # 5deb0 <pread>
    c1e8:	000e0367          	jalr	t1,t3
    c1ec:	00000013          	nop

000000000000c1f0 <_pthread_cleanup_push@plt>:
    c1f0:	00052e17          	auipc	t3,0x52
    c1f4:	cc8e3e03          	ld	t3,-824(t3) # 5deb8 <_pthread_cleanup_push>
    c1f8:	000e0367          	jalr	t1,t3
    c1fc:	00000013          	nop

000000000000c200 <pthread_setcanceltype@plt>:
    c200:	00052e17          	auipc	t3,0x52
    c204:	cc0e3e03          	ld	t3,-832(t3) # 5dec0 <pthread_setcanceltype>
    c208:	000e0367          	jalr	t1,t3
    c20c:	00000013          	nop

000000000000c210 <iswupper@plt>:
    c210:	00052e17          	auipc	t3,0x52
    c214:	cb8e3e03          	ld	t3,-840(t3) # 5dec8 <iswupper>
    c218:	000e0367          	jalr	t1,t3
    c21c:	00000013          	nop

000000000000c220 <pthread_mutexattr_init@plt>:
    c220:	00052e17          	auipc	t3,0x52
    c224:	cb0e3e03          	ld	t3,-848(t3) # 5ded0 <pthread_mutexattr_init>
    c228:	000e0367          	jalr	t1,t3
    c22c:	00000013          	nop

000000000000c230 <twalk@plt>:
    c230:	00052e17          	auipc	t3,0x52
    c234:	ca8e3e03          	ld	t3,-856(t3) # 5ded8 <twalk>
    c238:	000e0367          	jalr	t1,t3
    c23c:	00000013          	nop

000000000000c240 <strftime@plt>:
    c240:	00052e17          	auipc	t3,0x52
    c244:	ca0e3e03          	ld	t3,-864(t3) # 5dee0 <strftime>
    c248:	000e0367          	jalr	t1,t3
    c24c:	00000013          	nop

000000000000c250 <stat@plt>:
    c250:	00052e17          	auipc	t3,0x52
    c254:	c98e3e03          	ld	t3,-872(t3) # 5dee8 <stat>
    c258:	000e0367          	jalr	t1,t3
    c25c:	00000013          	nop

000000000000c260 <mkdtemp@plt>:
    c260:	00052e17          	auipc	t3,0x52
    c264:	c90e3e03          	ld	t3,-880(t3) # 5def0 <mkdtemp>
    c268:	000e0367          	jalr	t1,t3
    c26c:	00000013          	nop

000000000000c270 <fwrite@plt>:
    c270:	00052e17          	auipc	t3,0x52
    c274:	c88e3e03          	ld	t3,-888(t3) # 5def8 <fwrite>
    c278:	000e0367          	jalr	t1,t3
    c27c:	00000013          	nop

000000000000c280 <pthread_mutex_destroy@plt>:
    c280:	00052e17          	auipc	t3,0x52
    c284:	c80e3e03          	ld	t3,-896(t3) # 5df00 <pthread_mutex_destroy>
    c288:	000e0367          	jalr	t1,t3
    c28c:	00000013          	nop

000000000000c290 <lsearch@plt>:
    c290:	00052e17          	auipc	t3,0x52
    c294:	c78e3e03          	ld	t3,-904(t3) # 5df08 <lsearch>
    c298:	000e0367          	jalr	t1,t3
    c29c:	00000013          	nop

000000000000c2a0 <strptime@plt>:
    c2a0:	00052e17          	auipc	t3,0x52
    c2a4:	c70e3e03          	ld	t3,-912(t3) # 5df10 <strptime>
    c2a8:	000e0367          	jalr	t1,t3
    c2ac:	00000013          	nop

000000000000c2b0 <rewind@plt>:
    c2b0:	00052e17          	auipc	t3,0x52
    c2b4:	c68e3e03          	ld	t3,-920(t3) # 5df18 <rewind>
    c2b8:	000e0367          	jalr	t1,t3
    c2bc:	00000013          	nop

000000000000c2c0 <pthread_mutex_lock@plt>:
    c2c0:	00052e17          	auipc	t3,0x52
    c2c4:	c60e3e03          	ld	t3,-928(t3) # 5df20 <pthread_mutex_lock>
    c2c8:	000e0367          	jalr	t1,t3
    c2cc:	00000013          	nop

000000000000c2d0 <sem_getvalue@plt>:
    c2d0:	00052e17          	auipc	t3,0x52
    c2d4:	c58e3e03          	ld	t3,-936(t3) # 5df28 <sem_getvalue>
    c2d8:	000e0367          	jalr	t1,t3
    c2dc:	00000013          	nop

000000000000c2e0 <pthread_cond_wait@plt>:
    c2e0:	00052e17          	auipc	t3,0x52
    c2e4:	c50e3e03          	ld	t3,-944(t3) # 5df30 <pthread_cond_wait>
    c2e8:	000e0367          	jalr	t1,t3
    c2ec:	00000013          	nop

000000000000c2f0 <dn_expand@plt>:
    c2f0:	00052e17          	auipc	t3,0x52
    c2f4:	c48e3e03          	ld	t3,-952(t3) # 5df38 <dn_expand>
    c2f8:	000e0367          	jalr	t1,t3
    c2fc:	00000013          	nop

000000000000c300 <__errno_location@plt>:
    c300:	00052e17          	auipc	t3,0x52
    c304:	c40e3e03          	ld	t3,-960(t3) # 5df40 <__errno_location>
    c308:	000e0367          	jalr	t1,t3
    c30c:	00000013          	nop

000000000000c310 <exit@plt>:
    c310:	00052e17          	auipc	t3,0x52
    c314:	c38e3e03          	ld	t3,-968(t3) # 5df48 <exit>
    c318:	000e0367          	jalr	t1,t3
    c31c:	00000013          	nop

000000000000c320 <inet_ntop@plt>:
    c320:	00052e17          	auipc	t3,0x52
    c324:	c30e3e03          	ld	t3,-976(t3) # 5df50 <inet_ntop>
    c328:	000e0367          	jalr	t1,t3
    c32c:	00000013          	nop

000000000000c330 <iswalnum@plt>:
    c330:	00052e17          	auipc	t3,0x52
    c334:	c28e3e03          	ld	t3,-984(t3) # 5df58 <iswalnum>
    c338:	000e0367          	jalr	t1,t3
    c33c:	00000013          	nop

000000000000c340 <wcscmp@plt>:
    c340:	00052e17          	auipc	t3,0x52
    c344:	c20e3e03          	ld	t3,-992(t3) # 5df60 <wcscmp>
    c348:	000e0367          	jalr	t1,t3
    c34c:	00000013          	nop

000000000000c350 <pthread_cond_destroy@plt>:
    c350:	00052e17          	auipc	t3,0x52
    c354:	c18e3e03          	ld	t3,-1000(t3) # 5df68 <pthread_cond_destroy>
    c358:	000e0367          	jalr	t1,t3
    c35c:	00000013          	nop

000000000000c360 <fileno@plt>:
    c360:	00052e17          	auipc	t3,0x52
    c364:	c10e3e03          	ld	t3,-1008(t3) # 5df70 <fileno>
    c368:	000e0367          	jalr	t1,t3
    c36c:	00000013          	nop

000000000000c370 <pthread_mutexattr_setrobust@plt>:
    c370:	00052e17          	auipc	t3,0x52
    c374:	c08e3e03          	ld	t3,-1016(t3) # 5df78 <pthread_mutexattr_setrobust>
    c378:	000e0367          	jalr	t1,t3
    c37c:	00000013          	nop

000000000000c380 <strverscmp@plt>:
    c380:	00052e17          	auipc	t3,0x52
    c384:	c00e3e03          	ld	t3,-1024(t3) # 5df80 <strverscmp>
    c388:	000e0367          	jalr	t1,t3
    c38c:	00000013          	nop

000000000000c390 <gmtime@plt>:
    c390:	00052e17          	auipc	t3,0x52
    c394:	bf8e3e03          	ld	t3,-1032(t3) # 5df88 <gmtime>
    c398:	000e0367          	jalr	t1,t3
    c39c:	00000013          	nop

000000000000c3a0 <strspn@plt>:
    c3a0:	00052e17          	auipc	t3,0x52
    c3a4:	bf0e3e03          	ld	t3,-1040(t3) # 5df90 <strspn>
    c3a8:	000e0367          	jalr	t1,t3
    c3ac:	00000013          	nop

000000000000c3b0 <wctob@plt>:
    c3b0:	00052e17          	auipc	t3,0x52
    c3b4:	be8e3e03          	ld	t3,-1048(t3) # 5df98 <wctob>
    c3b8:	000e0367          	jalr	t1,t3
    c3bc:	00000013          	nop

000000000000c3c0 <daemon@plt>:
    c3c0:	00052e17          	auipc	t3,0x52
    c3c4:	be0e3e03          	ld	t3,-1056(t3) # 5dfa0 <daemon>
    c3c8:	000e0367          	jalr	t1,t3
    c3cc:	00000013          	nop

000000000000c3d0 <pthread_mutex_init@plt>:
    c3d0:	00052e17          	auipc	t3,0x52
    c3d4:	bd8e3e03          	ld	t3,-1064(t3) # 5dfa8 <pthread_mutex_init>
    c3d8:	000e0367          	jalr	t1,t3
    c3dc:	00000013          	nop

000000000000c3e0 <__libc_start_main@plt>:
    c3e0:	00052e17          	auipc	t3,0x52
    c3e4:	bd0e3e03          	ld	t3,-1072(t3) # 5dfb0 <__libc_start_main>
    c3e8:	000e0367          	jalr	t1,t3
    c3ec:	00000013          	nop

000000000000c3f0 <strlen@plt>:
    c3f0:	00052e17          	auipc	t3,0x52
    c3f4:	bc8e3e03          	ld	t3,-1080(t3) # 5dfb8 <strlen>
    c3f8:	000e0367          	jalr	t1,t3
    c3fc:	00000013          	nop

000000000000c400 <open@plt>:
    c400:	00052e17          	auipc	t3,0x52
    c404:	bc0e3e03          	ld	t3,-1088(t3) # 5dfc0 <open>
    c408:	000e0367          	jalr	t1,t3
    c40c:	00000013          	nop

000000000000c410 <regfree@plt>:
    c410:	00052e17          	auipc	t3,0x52
    c414:	bb8e3e03          	ld	t3,-1096(t3) # 5dfc8 <regfree>
    c418:	000e0367          	jalr	t1,t3
    c41c:	00000013          	nop

000000000000c420 <strchr@plt>:
    c420:	00052e17          	auipc	t3,0x52
    c424:	bb0e3e03          	ld	t3,-1104(t3) # 5dfd0 <strchr>
    c428:	000e0367          	jalr	t1,t3
    c42c:	00000013          	nop

000000000000c430 <fputs@plt>:
    c430:	00052e17          	auipc	t3,0x52
    c434:	ba8e3e03          	ld	t3,-1112(t3) # 5dfd8 <fputs>
    c438:	000e0367          	jalr	t1,t3
    c43c:	00000013          	nop

000000000000c440 <fgetwc@plt>:
    c440:	00052e17          	auipc	t3,0x52
    c444:	ba0e3e03          	ld	t3,-1120(t3) # 5dfe0 <fgetwc>
    c448:	000e0367          	jalr	t1,t3
    c44c:	00000013          	nop

000000000000c450 <fcntl@plt>:
    c450:	00052e17          	auipc	t3,0x52
    c454:	b98e3e03          	ld	t3,-1128(t3) # 5dfe8 <fcntl>
    c458:	000e0367          	jalr	t1,t3
    c45c:	00000013          	nop

000000000000c460 <tzset@plt>:
    c460:	00052e17          	auipc	t3,0x52
    c464:	b90e3e03          	ld	t3,-1136(t3) # 5dff0 <tzset>
    c468:	000e0367          	jalr	t1,t3
    c46c:	00000013          	nop

000000000000c470 <pthread_join@plt>:
    c470:	00052e17          	auipc	t3,0x52
    c474:	b88e3e03          	ld	t3,-1144(t3) # 5dff8 <pthread_join>
    c478:	000e0367          	jalr	t1,t3
    c47c:	00000013          	nop

000000000000c480 <pthread_cond_timedwait@plt>:
    c480:	00052e17          	auipc	t3,0x52
    c484:	b80e3e03          	ld	t3,-1152(t3) # 5e000 <pthread_cond_timedwait>
    c488:	000e0367          	jalr	t1,t3
    c48c:	00000013          	nop

000000000000c490 <wcrtomb@plt>:
    c490:	00052e17          	auipc	t3,0x52
    c494:	b78e3e03          	ld	t3,-1160(t3) # 5e008 <wcrtomb>
    c498:	000e0367          	jalr	t1,t3
    c49c:	00000013          	nop

000000000000c4a0 <close@plt>:
    c4a0:	00052e17          	auipc	t3,0x52
    c4a4:	b70e3e03          	ld	t3,-1168(t3) # 5e010 <close>
    c4a8:	000e0367          	jalr	t1,t3
    c4ac:	00000013          	nop

000000000000c4b0 <fmemopen@plt>:
    c4b0:	00052e17          	auipc	t3,0x52
    c4b4:	b68e3e03          	ld	t3,-1176(t3) # 5e018 <fmemopen>
    c4b8:	000e0367          	jalr	t1,t3
    c4bc:	00000013          	nop

000000000000c4c0 <strpbrk@plt>:
    c4c0:	00052e17          	auipc	t3,0x52
    c4c4:	b60e3e03          	ld	t3,-1184(t3) # 5e020 <strpbrk>
    c4c8:	000e0367          	jalr	t1,t3
    c4cc:	00000013          	nop

000000000000c4d0 <pthread_setspecific@plt>:
    c4d0:	00052e17          	auipc	t3,0x52
    c4d4:	b58e3e03          	ld	t3,-1192(t3) # 5e028 <pthread_setspecific>
    c4d8:	000e0367          	jalr	t1,t3
    c4dc:	00000013          	nop

000000000000c4e0 <free@plt>:
    c4e0:	00052e17          	auipc	t3,0x52
    c4e4:	b50e3e03          	ld	t3,-1200(t3) # 5e030 <free>
    c4e8:	000e0367          	jalr	t1,t3
    c4ec:	00000013          	nop

000000000000c4f0 <sigprocmask@plt>:
    c4f0:	00052e17          	auipc	t3,0x52
    c4f4:	b48e3e03          	ld	t3,-1208(t3) # 5e038 <sigprocmask>
    c4f8:	000e0367          	jalr	t1,t3
    c4fc:	00000013          	nop

000000000000c500 <getsockname@plt>:
    c500:	00052e17          	auipc	t3,0x52
    c504:	b40e3e03          	ld	t3,-1216(t3) # 5e040 <getsockname>
    c508:	000e0367          	jalr	t1,t3
    c50c:	00000013          	nop

Disassembly of section .text:

000000000000c510 <_start>:
    c510:	00052197          	auipc	gp,0x52
    c514:	3b818193          	addi	gp,gp,952 # 5e8c8 <__global_pointer$>
    c518:	850a                	mv	a0,sp
    c51a:	0004e597          	auipc	a1,0x4e
    c51e:	6ae58593          	addi	a1,a1,1710 # 5abc8 <_DYNAMIC>
    c522:	ff017113          	andi	sp,sp,-16
    c526:	a009                	j	c528 <_start_c>

000000000000c528 <_start_c>:

void _start_c(long *p)
{
	int argc = p[0];
	char **argv = (void *)(p+1);
	__libc_start_main(main, argc, argv, _init, _fini, 0);
    c528:	410c                	lw	a1,0(a0)
    c52a:	00850613          	addi	a2,a0,8
    c52e:	4781                	li	a5,0
    c530:	00052717          	auipc	a4,0x52
    c534:	b8873703          	ld	a4,-1144(a4) # 5e0b8 <_fini>
    c538:	00052697          	auipc	a3,0x52
    c53c:	b406b683          	ld	a3,-1216(a3) # 5e078 <_init>
    c540:	00052517          	auipc	a0,0x52
    c544:	b6853503          	ld	a0,-1176(a0) # 5e0a8 <_GLOBAL_OFFSET_TABLE_+0x60>
    c548:	e99ff06f          	j	c3e0 <__libc_start_main@plt>

000000000000c54c <deregister_tm_clones>:
    c54c:	00051517          	auipc	a0,0x51
    c550:	2ac50513          	addi	a0,a0,684 # 5d7f8 <__TMC_END__>
    c554:	00051797          	auipc	a5,0x51
    c558:	2a478793          	addi	a5,a5,676 # 5d7f8 <__TMC_END__>
    c55c:	00a78863          	beq	a5,a0,c56c <deregister_tm_clones+0x20>
    c560:	00052797          	auipc	a5,0x52
    c564:	b387b783          	ld	a5,-1224(a5) # 5e098 <_ITM_deregisterTMCloneTable>
    c568:	c391                	beqz	a5,c56c <deregister_tm_clones+0x20>
    c56a:	8782                	jr	a5
    c56c:	8082                	ret

000000000000c56e <register_tm_clones>:
    c56e:	00051517          	auipc	a0,0x51
    c572:	28a50513          	addi	a0,a0,650 # 5d7f8 <__TMC_END__>
    c576:	00051597          	auipc	a1,0x51
    c57a:	28258593          	addi	a1,a1,642 # 5d7f8 <__TMC_END__>
    c57e:	8d89                	sub	a1,a1,a0
    c580:	4035d793          	srai	a5,a1,0x3
    c584:	91fd                	srli	a1,a1,0x3f
    c586:	95be                	add	a1,a1,a5
    c588:	8585                	srai	a1,a1,0x1
    c58a:	c599                	beqz	a1,c598 <register_tm_clones+0x2a>
    c58c:	00052797          	auipc	a5,0x52
    c590:	afc7b783          	ld	a5,-1284(a5) # 5e088 <_ITM_registerTMCloneTable>
    c594:	c391                	beqz	a5,c598 <register_tm_clones+0x2a>
    c596:	8782                	jr	a5
    c598:	8082                	ret

000000000000c59a <__do_global_dtors_aux>:
    c59a:	1141                	addi	sp,sp,-16
    c59c:	e022                	sd	s0,0(sp)
    c59e:	00052417          	auipc	s0,0x52
    c5a2:	b2a40413          	addi	s0,s0,-1238 # 5e0c8 <completed.0>
    c5a6:	00044783          	lbu	a5,0(s0)
    c5aa:	e406                	sd	ra,8(sp)
    c5ac:	e385                	bnez	a5,c5cc <__do_global_dtors_aux+0x32>
    c5ae:	00052797          	auipc	a5,0x52
    c5b2:	ac27b783          	ld	a5,-1342(a5) # 5e070 <__cxa_finalize>
    c5b6:	c791                	beqz	a5,c5c2 <__do_global_dtors_aux+0x28>
    c5b8:	0004f517          	auipc	a0,0x4f
    c5bc:	a4853503          	ld	a0,-1464(a0) # 5b000 <__dso_handle>
    c5c0:	9782                	jalr	a5
    c5c2:	f8bff0ef          	jal	ra,c54c <deregister_tm_clones>
    c5c6:	4785                	li	a5,1
    c5c8:	00f40023          	sb	a5,0(s0)
    c5cc:	60a2                	ld	ra,8(sp)
    c5ce:	6402                	ld	s0,0(sp)
    c5d0:	0141                	addi	sp,sp,16
    c5d2:	8082                	ret

000000000000c5d4 <frame_dummy>:
    c5d4:	bf69                	j	c56e <register_tm_clones>

000000000000c5d6 <mystrcmp>:
    c5d6:	1101                	addi	sp,sp,-32
    c5d8:	ec22                	sd	s0,24(sp)
    c5da:	1000                	addi	s0,sp,32
    c5dc:	fea43423          	sd	a0,-24(s0)
    c5e0:	feb43023          	sd	a1,-32(s0)
    c5e4:	a819                	j	c5fa <mystrcmp+0x24>
    c5e6:	fe843783          	ld	a5,-24(s0)
    c5ea:	0785                	addi	a5,a5,1
    c5ec:	fef43423          	sd	a5,-24(s0)
    c5f0:	fe043783          	ld	a5,-32(s0)
    c5f4:	0785                	addi	a5,a5,1
    c5f6:	fef43023          	sd	a5,-32(s0)
    c5fa:	fe843783          	ld	a5,-24(s0)
    c5fe:	0007c783          	lbu	a5,0(a5)
    c602:	c385                	beqz	a5,c622 <mystrcmp+0x4c>
    c604:	fe043783          	ld	a5,-32(s0)
    c608:	0007c783          	lbu	a5,0(a5)
    c60c:	cb99                	beqz	a5,c622 <mystrcmp+0x4c>
    c60e:	fe843783          	ld	a5,-24(s0)
    c612:	0007c703          	lbu	a4,0(a5)
    c616:	fe043783          	ld	a5,-32(s0)
    c61a:	0007c783          	lbu	a5,0(a5)
    c61e:	fcf704e3          	beq	a4,a5,c5e6 <mystrcmp+0x10>
    c622:	fe843783          	ld	a5,-24(s0)
    c626:	0007c783          	lbu	a5,0(a5)
    c62a:	0007871b          	sext.w	a4,a5
    c62e:	fe043783          	ld	a5,-32(s0)
    c632:	0007c783          	lbu	a5,0(a5)
    c636:	2781                	sext.w	a5,a5
    c638:	40f707bb          	subw	a5,a4,a5
    c63c:	2781                	sext.w	a5,a5
    c63e:	853e                	mv	a0,a5
    c640:	6462                	ld	s0,24(sp)
    c642:	6105                	addi	sp,sp,32
    c644:	8082                	ret

000000000000c646 <main>:
    c646:	7179                	addi	sp,sp,-48
    c648:	f406                	sd	ra,40(sp)
    c64a:	f022                	sd	s0,32(sp)
    c64c:	1800                	addi	s0,sp,48
    c64e:	87aa                	mv	a5,a0
    c650:	fcb43823          	sd	a1,-48(s0)
    c654:	fcf42e23          	sw	a5,-36(s0)
    c658:	fdc42783          	lw	a5,-36(s0)
    c65c:	0007871b          	sext.w	a4,a5
    c660:	4789                	li	a5,2
    c662:	00f70463          	beq	a4,a5,c66a <main+0x24>
    c666:	57fd                	li	a5,-1
    c668:	a8ad                	j	c6e2 <main+0x9c>
    c66a:	fe042623          	sw	zero,-20(s0)
    c66e:	a8b9                	j	c6cc <main+0x86>
    c670:	0004f717          	auipc	a4,0x4f
    c674:	99870713          	addi	a4,a4,-1640 # 5b008 <table>
    c678:	fec42783          	lw	a5,-20(s0)
    c67c:	0792                	slli	a5,a5,0x4
    c67e:	97ba                	add	a5,a5,a4
    c680:	6398                	ld	a4,0(a5)
    c682:	fd043783          	ld	a5,-48(s0)
    c686:	07a1                	addi	a5,a5,8
    c688:	639c                	ld	a5,0(a5)
    c68a:	85be                	mv	a1,a5
    c68c:	853a                	mv	a0,a4
    c68e:	f49ff0ef          	jal	ra,c5d6 <mystrcmp>
    c692:	87aa                	mv	a5,a0
    c694:	e79d                	bnez	a5,c6c2 <main+0x7c>
    c696:	0004f717          	auipc	a4,0x4f
    c69a:	97270713          	addi	a4,a4,-1678 # 5b008 <table>
    c69e:	fec42783          	lw	a5,-20(s0)
    c6a2:	0792                	slli	a5,a5,0x4
    c6a4:	97ba                	add	a5,a5,a4
    c6a6:	679c                	ld	a5,8(a5)
    c6a8:	fdc42703          	lw	a4,-36(s0)
    c6ac:	377d                	addiw	a4,a4,-1
    c6ae:	0007069b          	sext.w	a3,a4
    c6b2:	fd043703          	ld	a4,-48(s0)
    c6b6:	0721                	addi	a4,a4,8
    c6b8:	85ba                	mv	a1,a4
    c6ba:	8536                	mv	a0,a3
    c6bc:	9782                	jalr	a5
    c6be:	87aa                	mv	a5,a0
    c6c0:	a00d                	j	c6e2 <main+0x9c>
    c6c2:	fec42783          	lw	a5,-20(s0)
    c6c6:	2785                	addiw	a5,a5,1
    c6c8:	fef42623          	sw	a5,-20(s0)
    c6cc:	0004f717          	auipc	a4,0x4f
    c6d0:	93c70713          	addi	a4,a4,-1732 # 5b008 <table>
    c6d4:	fec42783          	lw	a5,-20(s0)
    c6d8:	0792                	slli	a5,a5,0x4
    c6da:	97ba                	add	a5,a5,a4
    c6dc:	679c                	ld	a5,8(a5)
    c6de:	fbc9                	bnez	a5,c670 <main+0x2a>
    c6e0:	57fd                	li	a5,-1
    c6e2:	853e                	mv	a0,a5
    c6e4:	70a2                	ld	ra,40(sp)
    c6e6:	7402                	ld	s0,32(sp)
    c6e8:	6145                	addi	sp,sp,48
    c6ea:	8082                	ret

000000000000c6ec <t_fdfill>:
#include <unistd.h>
#include <errno.h>
#include "test.h"

void t_fdfill(void)
{
    c6ec:	1101                	addi	sp,sp,-32
    c6ee:	ec06                	sd	ra,24(sp)
    c6f0:	e822                	sd	s0,16(sp)
    c6f2:	1000                	addi	s0,sp,32
	int fd = 1;
    c6f4:	4785                	li	a5,1
    c6f6:	fef42623          	sw	a5,-20(s0)
	if (dup(fd) == -1) {
    c6fa:	fec42783          	lw	a5,-20(s0)
    c6fe:	853e                	mv	a0,a5
    c700:	991ff0ef          	jal	ra,c090 <dup@plt>
    c704:	87aa                	mv	a5,a0
    c706:	873e                	mv	a4,a5
    c708:	57fd                	li	a5,-1
    c70a:	02f71463          	bne	a4,a5,c732 <t_fdfill+0x46>
		if (errno == EMFILE)
    c70e:	bf3ff0ef          	jal	ra,c300 <__errno_location@plt>
    c712:	87aa                	mv	a5,a0
    c714:	439c                	lw	a5,0(a5)
    c716:	873e                	mv	a4,a5
    c718:	47e1                	li	a5,24
    c71a:	02f70863          	beq	a4,a5,c74a <t_fdfill+0x5e>
			return;
		fd = open("/dev/null", O_RDONLY);
    c71e:	4581                	li	a1,0
    c720:	00024517          	auipc	a0,0x24
    c724:	26050513          	addi	a0,a0,608 # 30980 <__clzdi2+0x768>
    c728:	cd9ff0ef          	jal	ra,c400 <open@plt>
    c72c:	87aa                	mv	a5,a0
    c72e:	fef42623          	sw	a5,-20(s0)
	}
	while(dup(fd) != -1);
    c732:	0001                	nop
    c734:	fec42783          	lw	a5,-20(s0)
    c738:	853e                	mv	a0,a5
    c73a:	957ff0ef          	jal	ra,c090 <dup@plt>
    c73e:	87aa                	mv	a5,a0
    c740:	873e                	mv	a4,a5
    c742:	57fd                	li	a5,-1
    c744:	fef718e3          	bne	a4,a5,c734 <t_fdfill+0x48>
    c748:	a011                	j	c74c <t_fdfill+0x60>
			return;
    c74a:	0001                	nop
}
    c74c:	60e2                	ld	ra,24(sp)
    c74e:	6442                	ld	s0,16(sp)
    c750:	6105                	addi	sp,sp,32
    c752:	8082                	ret

000000000000c754 <t_memfill>:
#include <errno.h>
#include <sys/resource.h>
#include "test.h"

int t_memfill()
{
    c754:	1101                	addi	sp,sp,-32
    c756:	ec06                	sd	ra,24(sp)
    c758:	e822                	sd	s0,16(sp)
    c75a:	1000                	addi	s0,sp,32
	int r = 0;
    c75c:	fe042623          	sw	zero,-20(s0)
	/* alloc mmap space with PROT_NONE */
	if (t_vmfill(0,0,0) < 0) {
    c760:	4601                	li	a2,0
    c762:	4581                	li	a1,0
    c764:	4501                	li	a0,0
    c766:	2fa010ef          	jal	ra,da60 <t_vmfill>
    c76a:	87aa                	mv	a5,a0
    c76c:	0207d463          	bgez	a5,c794 <t_memfill+0x40>
		t_error("vmfill failed: %s\n", strerror(errno));
    c770:	b91ff0ef          	jal	ra,c300 <__errno_location@plt>
    c774:	87aa                	mv	a5,a0
    c776:	439c                	lw	a5,0(a5)
    c778:	853e                	mv	a0,a5
    c77a:	e87fe0ef          	jal	ra,b600 <strerror@plt>
    c77e:	87aa                	mv	a5,a0
    c780:	85be                	mv	a1,a5
    c782:	00024517          	auipc	a0,0x24
    c786:	20e50513          	addi	a0,a0,526 # 30990 <__clzdi2+0x778>
    c78a:	045000ef          	jal	ra,cfce <t_printf>
		r = -1;
    c78e:	57fd                	li	a5,-1
    c790:	fef42623          	sw	a5,-20(s0)
	}
	/* limit brk space */
	if (t_setrlim(RLIMIT_DATA, 0) < 0)
    c794:	4581                	li	a1,0
    c796:	4509                	li	a0,2
    c798:	03a010ef          	jal	ra,d7d2 <t_setrlim>
    c79c:	87aa                	mv	a5,a0
    c79e:	0007d563          	bgez	a5,c7a8 <t_memfill+0x54>
		r = -1;
    c7a2:	57fd                	li	a5,-1
    c7a4:	fef42623          	sw	a5,-20(s0)
	if (!r)
    c7a8:	fec42783          	lw	a5,-20(s0)
    c7ac:	2781                	sext.w	a5,a5
    c7ae:	e799                	bnez	a5,c7bc <t_memfill+0x68>
		/* use up libc reserves if any */
		while (malloc(1));
    c7b0:	0001                	nop
    c7b2:	4505                	li	a0,1
    c7b4:	92cff0ef          	jal	ra,b8e0 <malloc@plt>
    c7b8:	87aa                	mv	a5,a0
    c7ba:	ffe5                	bnez	a5,c7b2 <t_memfill+0x5e>
	return r;
    c7bc:	fec42783          	lw	a5,-20(s0)
}
    c7c0:	853e                	mv	a0,a5
    c7c2:	60e2                	ld	ra,24(sp)
    c7c4:	6442                	ld	s0,16(sp)
    c7c6:	6105                	addi	sp,sp,32
    c7c8:	8082                	ret

000000000000c7ca <__FLOAT_BITS>:
int __fpclassify(double);
int __fpclassifyf(float);
int __fpclassifyl(long double);

static __inline unsigned __FLOAT_BITS(float __f)
{
    c7ca:	7179                	addi	sp,sp,-48
    c7cc:	f422                	sd	s0,40(sp)
    c7ce:	1800                	addi	s0,sp,48
    c7d0:	fca42e27          	fsw	fa0,-36(s0)
	union {float __f; unsigned __i;} __u;
	__u.__f = __f;
    c7d4:	fdc42787          	flw	fa5,-36(s0)
    c7d8:	fef42427          	fsw	fa5,-24(s0)
	return __u.__i;
    c7dc:	fe842783          	lw	a5,-24(s0)
}
    c7e0:	853e                	mv	a0,a5
    c7e2:	7422                	ld	s0,40(sp)
    c7e4:	6145                	addi	sp,sp,48
    c7e6:	8082                	ret

000000000000c7e8 <__DOUBLE_BITS>:
static __inline unsigned long long __DOUBLE_BITS(double __f)
{
    c7e8:	7179                	addi	sp,sp,-48
    c7ea:	f422                	sd	s0,40(sp)
    c7ec:	1800                	addi	s0,sp,48
    c7ee:	fca43c27          	fsd	fa0,-40(s0)
	union {double __f; unsigned long long __i;} __u;
	__u.__f = __f;
    c7f2:	fd843787          	fld	fa5,-40(s0)
    c7f6:	fef43427          	fsd	fa5,-24(s0)
	return __u.__i;
    c7fa:	fe843783          	ld	a5,-24(s0)
}
    c7fe:	853e                	mv	a0,a5
    c800:	7422                	ld	s0,40(sp)
    c802:	6145                	addi	sp,sp,48
    c804:	8082                	ret

000000000000c806 <checkexcept>:
float ulperr(double got, double want, float dwant);
float ulperrf(float got, float want, float dwant);
float ulperrl(long double got, long double want, float dwant);

static int checkexcept(int got, int want, int r)
{
    c806:	1101                	addi	sp,sp,-32
    c808:	ec22                	sd	s0,24(sp)
    c80a:	1000                	addi	s0,sp,32
    c80c:	87aa                	mv	a5,a0
    c80e:	86ae                	mv	a3,a1
    c810:	8732                	mv	a4,a2
    c812:	fef42623          	sw	a5,-20(s0)
    c816:	87b6                	mv	a5,a3
    c818:	fef42423          	sw	a5,-24(s0)
    c81c:	87ba                	mv	a5,a4
    c81e:	fef42223          	sw	a5,-28(s0)
	if (r == RN)
    c822:	fe442783          	lw	a5,-28(s0)
    c826:	2781                	sext.w	a5,a5
    c828:	e785                	bnez	a5,c850 <checkexcept+0x4a>
#if defined CHECK_INEXACT
		return got == want;
#elif defined CHECK_INEXACT_OMISSION
		return got == want || got == (want|INEXACT);
#else
		return (got|INEXACT) == (want|INEXACT);
    c82a:	fec42783          	lw	a5,-20(s0)
    c82e:	0017e793          	ori	a5,a5,1
    c832:	0007871b          	sext.w	a4,a5
    c836:	fe842783          	lw	a5,-24(s0)
    c83a:	0017e793          	ori	a5,a5,1
    c83e:	2781                	sext.w	a5,a5
    c840:	40f707b3          	sub	a5,a4,a5
    c844:	0017b793          	seqz	a5,a5
    c848:	0ff7f793          	zext.b	a5,a5
    c84c:	2781                	sext.w	a5,a5
    c84e:	a01d                	j	c874 <checkexcept+0x6e>
#endif
	return (got|INEXACT|UNDERFLOW) == (want|INEXACT|UNDERFLOW);
    c850:	fec42783          	lw	a5,-20(s0)
    c854:	0037e793          	ori	a5,a5,3
    c858:	0007871b          	sext.w	a4,a5
    c85c:	fe842783          	lw	a5,-24(s0)
    c860:	0037e793          	ori	a5,a5,3
    c864:	2781                	sext.w	a5,a5
    c866:	40f707b3          	sub	a5,a4,a5
    c86a:	0017b793          	seqz	a5,a5
    c86e:	0ff7f793          	zext.b	a5,a5
    c872:	2781                	sext.w	a5,a5
}
    c874:	853e                	mv	a0,a5
    c876:	6462                	ld	s0,24(sp)
    c878:	6105                	addi	sp,sp,32
    c87a:	8082                	ret

000000000000c87c <checkexceptall>:

static int checkexceptall(int got, int want, int r)
{
    c87c:	1101                	addi	sp,sp,-32
    c87e:	ec22                	sd	s0,24(sp)
    c880:	1000                	addi	s0,sp,32
    c882:	87aa                	mv	a5,a0
    c884:	86ae                	mv	a3,a1
    c886:	8732                	mv	a4,a2
    c888:	fef42623          	sw	a5,-20(s0)
    c88c:	87b6                	mv	a5,a3
    c88e:	fef42423          	sw	a5,-24(s0)
    c892:	87ba                	mv	a5,a4
    c894:	fef42223          	sw	a5,-28(s0)
	return got == want;
    c898:	fec42783          	lw	a5,-20(s0)
    c89c:	873e                	mv	a4,a5
    c89e:	fe842783          	lw	a5,-24(s0)
    c8a2:	2701                	sext.w	a4,a4
    c8a4:	2781                	sext.w	a5,a5
    c8a6:	40f707b3          	sub	a5,a4,a5
    c8aa:	0017b793          	seqz	a5,a5
    c8ae:	0ff7f793          	zext.b	a5,a5
    c8b2:	2781                	sext.w	a5,a5
}
    c8b4:	853e                	mv	a0,a5
    c8b6:	6462                	ld	s0,24(sp)
    c8b8:	6105                	addi	sp,sp,32
    c8ba:	8082                	ret

000000000000c8bc <checkulp>:

static int checkulp(float d, int r)
{
    c8bc:	1101                	addi	sp,sp,-32
    c8be:	ec06                	sd	ra,24(sp)
    c8c0:	e822                	sd	s0,16(sp)
    c8c2:	1000                	addi	s0,sp,32
    c8c4:	fea42627          	fsw	fa0,-20(s0)
    c8c8:	87aa                	mv	a5,a0
    c8ca:	fef42423          	sw	a5,-24(s0)
	// TODO: we only care about >=1.5 ulp errors for now, should be 1.0
	if (r == RN)
    c8ce:	fe842783          	lw	a5,-24(s0)
    c8d2:	2781                	sext.w	a5,a5
    c8d4:	e78d                	bnez	a5,c8fe <checkulp+0x42>
		return fabsf(d) < 1.5;
    c8d6:	fec42507          	flw	fa0,-20(s0)
    c8da:	906ff0ef          	jal	ra,b9e0 <fabsf@plt>
    c8de:	20a50753          	fmv.s	fa4,fa0
    c8e2:	00024797          	auipc	a5,0x24
    c8e6:	17278793          	addi	a5,a5,370 # 30a54 <__clzdi2+0x83c>
    c8ea:	0007a787          	flw	fa5,0(a5)
    c8ee:	a0f717d3          	flt.s	a5,fa4,fa5
    c8f2:	00f037b3          	snez	a5,a5
    c8f6:	0ff7f793          	zext.b	a5,a5
    c8fa:	2781                	sext.w	a5,a5
    c8fc:	a025                	j	c924 <checkulp+0x68>
	// accept larger error in non-nearest rounding mode
	return fabsf(d) < 3.0;
    c8fe:	fec42507          	flw	fa0,-20(s0)
    c902:	8deff0ef          	jal	ra,b9e0 <fabsf@plt>
    c906:	20a50753          	fmv.s	fa4,fa0
    c90a:	00024797          	auipc	a5,0x24
    c90e:	14e78793          	addi	a5,a5,334 # 30a58 <__clzdi2+0x840>
    c912:	0007a787          	flw	fa5,0(a5)
    c916:	a0f717d3          	flt.s	a5,fa4,fa5
    c91a:	00f037b3          	snez	a5,a5
    c91e:	0ff7f793          	zext.b	a5,a5
    c922:	2781                	sext.w	a5,a5
}
    c924:	853e                	mv	a0,a5
    c926:	60e2                	ld	ra,24(sp)
    c928:	6442                	ld	s0,16(sp)
    c92a:	6105                	addi	sp,sp,32
    c92c:	8082                	ret

000000000000c92e <checkcr>:

static int checkcr(long double y, long double ywant, int r)
{
    c92e:	715d                	addi	sp,sp,-80
    c930:	e486                	sd	ra,72(sp)
    c932:	e0a2                	sd	s0,64(sp)
    c934:	fc26                	sd	s1,56(sp)
    c936:	0880                	addi	s0,sp,80
    c938:	fca43823          	sd	a0,-48(s0)
    c93c:	fcb43c23          	sd	a1,-40(s0)
    c940:	fcc43023          	sd	a2,-64(s0)
    c944:	fcd43423          	sd	a3,-56(s0)
    c948:	87ba                	mv	a5,a4
    c94a:	faf42e23          	sw	a5,-68(s0)
	if (isnan(ywant))
    c94e:	fc043503          	ld	a0,-64(s0)
    c952:	fc843583          	ld	a1,-56(s0)
    c956:	e5bfe0ef          	jal	ra,b7b0 <__fpclassifyl@plt>
    c95a:	87aa                	mv	a5,a0
    c95c:	ef91                	bnez	a5,c978 <checkcr+0x4a>
		return isnan(y);
    c95e:	fd043503          	ld	a0,-48(s0)
    c962:	fd843583          	ld	a1,-40(s0)
    c966:	e4bfe0ef          	jal	ra,b7b0 <__fpclassifyl@plt>
    c96a:	87aa                	mv	a5,a0
    c96c:	0017b793          	seqz	a5,a5
    c970:	0ff7f793          	zext.b	a5,a5
    c974:	2781                	sext.w	a5,a5
    c976:	a091                	j	c9ba <checkcr+0x8c>
	return y == ywant && signbit(y) == signbit(ywant);
    c978:	fc043603          	ld	a2,-64(s0)
    c97c:	fc843683          	ld	a3,-56(s0)
    c980:	fd043503          	ld	a0,-48(s0)
    c984:	fd843583          	ld	a1,-40(s0)
    c988:	064230ef          	jal	ra,2f9ec <__eqtf2>
    c98c:	87aa                	mv	a5,a0
    c98e:	e78d                	bnez	a5,c9b8 <checkcr+0x8a>
    c990:	fd043503          	ld	a0,-48(s0)
    c994:	fd843583          	ld	a1,-40(s0)
    c998:	e88ff0ef          	jal	ra,c020 <__signbitl@plt>
    c99c:	87aa                	mv	a5,a0
    c99e:	84be                	mv	s1,a5
    c9a0:	fc043503          	ld	a0,-64(s0)
    c9a4:	fc843583          	ld	a1,-56(s0)
    c9a8:	e78ff0ef          	jal	ra,c020 <__signbitl@plt>
    c9ac:	87aa                	mv	a5,a0
    c9ae:	8726                	mv	a4,s1
    c9b0:	00f71463          	bne	a4,a5,c9b8 <checkcr+0x8a>
    c9b4:	4785                	li	a5,1
    c9b6:	a011                	j	c9ba <checkcr+0x8c>
    c9b8:	4781                	li	a5,0
}
    c9ba:	853e                	mv	a0,a5
    c9bc:	60a6                	ld	ra,72(sp)
    c9be:	6406                	ld	s0,64(sp)
    c9c0:	74e2                	ld	s1,56(sp)
    c9c2:	6161                	addi	sp,sp,80
    c9c4:	8082                	ret

000000000000c9c6 <eulpf>:
#include <stdio.h>
#include <stdint.h>
#include "mtest.h"

int eulpf(float x)
{
    c9c6:	7179                	addi	sp,sp,-48
    c9c8:	f422                	sd	s0,40(sp)
    c9ca:	1800                	addi	s0,sp,48
    c9cc:	fca42e27          	fsw	fa0,-36(s0)
	union { float f; uint32_t i; } u = { x };
    c9d0:	fdc42787          	flw	fa5,-36(s0)
    c9d4:	fef42427          	fsw	fa5,-24(s0)
	int e = u.i>>23 & 0xff;
    c9d8:	fe842783          	lw	a5,-24(s0)
    c9dc:	0177d79b          	srliw	a5,a5,0x17
    c9e0:	2781                	sext.w	a5,a5
    c9e2:	2781                	sext.w	a5,a5
    c9e4:	0ff7f793          	zext.b	a5,a5
    c9e8:	fef42623          	sw	a5,-20(s0)

	if (!e)
    c9ec:	fec42783          	lw	a5,-20(s0)
    c9f0:	2781                	sext.w	a5,a5
    c9f2:	e791                	bnez	a5,c9fe <eulpf+0x38>
		e++;
    c9f4:	fec42783          	lw	a5,-20(s0)
    c9f8:	2785                	addiw	a5,a5,1
    c9fa:	fef42623          	sw	a5,-20(s0)
	return e - 0x7f - 23;
    c9fe:	fec42783          	lw	a5,-20(s0)
    ca02:	f6a7879b          	addiw	a5,a5,-150
    ca06:	2781                	sext.w	a5,a5
}
    ca08:	853e                	mv	a0,a5
    ca0a:	7422                	ld	s0,40(sp)
    ca0c:	6145                	addi	sp,sp,48
    ca0e:	8082                	ret

000000000000ca10 <eulp>:

int eulp(double x)
{
    ca10:	7179                	addi	sp,sp,-48
    ca12:	f422                	sd	s0,40(sp)
    ca14:	1800                	addi	s0,sp,48
    ca16:	fca43c27          	fsd	fa0,-40(s0)
	union { double f; uint64_t i; } u = { x };
    ca1a:	fd843787          	fld	fa5,-40(s0)
    ca1e:	fef43427          	fsd	fa5,-24(s0)
	int e = u.i>>52 & 0x7ff;
    ca22:	fe843783          	ld	a5,-24(s0)
    ca26:	93d1                	srli	a5,a5,0x34
    ca28:	2781                	sext.w	a5,a5
    ca2a:	7ff7f793          	andi	a5,a5,2047
    ca2e:	fef42223          	sw	a5,-28(s0)

	if (!e)
    ca32:	fe442783          	lw	a5,-28(s0)
    ca36:	2781                	sext.w	a5,a5
    ca38:	e791                	bnez	a5,ca44 <eulp+0x34>
		e++;
    ca3a:	fe442783          	lw	a5,-28(s0)
    ca3e:	2785                	addiw	a5,a5,1
    ca40:	fef42223          	sw	a5,-28(s0)
	return e - 0x3ff - 52;
    ca44:	fe442783          	lw	a5,-28(s0)
    ca48:	bcd7879b          	addiw	a5,a5,-1075
    ca4c:	2781                	sext.w	a5,a5
}
    ca4e:	853e                	mv	a0,a5
    ca50:	7422                	ld	s0,40(sp)
    ca52:	6145                	addi	sp,sp,48
    ca54:	8082                	ret

000000000000ca56 <eulpl>:

int eulpl(long double x)
{
    ca56:	1101                	addi	sp,sp,-32
    ca58:	ec22                	sd	s0,24(sp)
    ca5a:	1000                	addi	s0,sp,32
    ca5c:	fea43023          	sd	a0,-32(s0)
    ca60:	feb43423          	sd	a1,-24(s0)
	if (!e)
		e++;
	return e - 0x3fff - 63;
#else
	// TODO
	return 0;
    ca64:	4781                	li	a5,0
#endif
}
    ca66:	853e                	mv	a0,a5
    ca68:	6462                	ld	s0,24(sp)
    ca6a:	6105                	addi	sp,sp,32
    ca6c:	8082                	ret

000000000000ca6e <ulperrf>:

float ulperrf(float got, float want, float dwant)
{
    ca6e:	7139                	addi	sp,sp,-64
    ca70:	fc06                	sd	ra,56(sp)
    ca72:	f822                	sd	s0,48(sp)
    ca74:	f426                	sd	s1,40(sp)
    ca76:	ac22                	fsd	fs0,24(sp)
    ca78:	0080                	addi	s0,sp,64
    ca7a:	fca42627          	fsw	fa0,-52(s0)
    ca7e:	fcb42427          	fsw	fa1,-56(s0)
    ca82:	fcc42227          	fsw	fa2,-60(s0)
	if (isnan(got) && isnan(want))
    ca86:	fcc42507          	flw	fa0,-52(s0)
    ca8a:	d41ff0ef          	jal	ra,c7ca <__FLOAT_BITS>
    ca8e:	87aa                	mv	a5,a0
    ca90:	2781                	sext.w	a5,a5
    ca92:	873e                	mv	a4,a5
    ca94:	800007b7          	lui	a5,0x80000
    ca98:	fff7c793          	not	a5,a5
    ca9c:	8ff9                	and	a5,a5,a4
    ca9e:	2781                	sext.w	a5,a5
    caa0:	873e                	mv	a4,a5
    caa2:	7f8007b7          	lui	a5,0x7f800
    caa6:	02e7f763          	bgeu	a5,a4,cad4 <ulperrf+0x66>
    caaa:	fc842507          	flw	fa0,-56(s0)
    caae:	d1dff0ef          	jal	ra,c7ca <__FLOAT_BITS>
    cab2:	87aa                	mv	a5,a0
    cab4:	2781                	sext.w	a5,a5
    cab6:	873e                	mv	a4,a5
    cab8:	800007b7          	lui	a5,0x80000
    cabc:	fff7c793          	not	a5,a5
    cac0:	8ff9                	and	a5,a5,a4
    cac2:	2781                	sext.w	a5,a5
    cac4:	873e                	mv	a4,a5
    cac6:	7f8007b7          	lui	a5,0x7f800
    caca:	00e7f563          	bgeu	a5,a4,cad4 <ulperrf+0x66>
		return 0;
    cace:	f00007d3          	fmv.w.x	fa5,zero
    cad2:	a0ed                	j	cbbc <ulperrf+0x14e>
	if (got == want) {
    cad4:	fcc42707          	flw	fa4,-52(s0)
    cad8:	fc842787          	flw	fa5,-56(s0)
    cadc:	a0f727d3          	feq.s	a5,fa4,fa5
    cae0:	c3b9                	beqz	a5,cb26 <ulperrf+0xb8>
		if (signbit(got) == signbit(want))
    cae2:	fcc42507          	flw	fa0,-52(s0)
    cae6:	ce5ff0ef          	jal	ra,c7ca <__FLOAT_BITS>
    caea:	87aa                	mv	a5,a0
    caec:	2781                	sext.w	a5,a5
    caee:	01f7d79b          	srliw	a5,a5,0x1f
    caf2:	2781                	sext.w	a5,a5
    caf4:	0007849b          	sext.w	s1,a5
    caf8:	fc842507          	flw	fa0,-56(s0)
    cafc:	ccfff0ef          	jal	ra,c7ca <__FLOAT_BITS>
    cb00:	87aa                	mv	a5,a0
    cb02:	2781                	sext.w	a5,a5
    cb04:	01f7d79b          	srliw	a5,a5,0x1f
    cb08:	2781                	sext.w	a5,a5
    cb0a:	2781                	sext.w	a5,a5
    cb0c:	8726                	mv	a4,s1
    cb0e:	00f71563          	bne	a4,a5,cb18 <ulperrf+0xaa>
			return dwant;
    cb12:	fc442787          	flw	fa5,-60(s0)
    cb16:	a05d                	j	cbbc <ulperrf+0x14e>
		return inf;
    cb18:	00024797          	auipc	a5,0x24
    cb1c:	f4478793          	addi	a5,a5,-188 # 30a5c <__clzdi2+0x844>
    cb20:	0007a787          	flw	fa5,0(a5)
    cb24:	a861                	j	cbbc <ulperrf+0x14e>
	}
	if (isinf(got)) {
    cb26:	fcc42507          	flw	fa0,-52(s0)
    cb2a:	ca1ff0ef          	jal	ra,c7ca <__FLOAT_BITS>
    cb2e:	87aa                	mv	a5,a0
    cb30:	2781                	sext.w	a5,a5
    cb32:	873e                	mv	a4,a5
    cb34:	800007b7          	lui	a5,0x80000
    cb38:	fff7c793          	not	a5,a5
    cb3c:	8ff9                	and	a5,a5,a4
    cb3e:	2781                	sext.w	a5,a5
    cb40:	873e                	mv	a4,a5
    cb42:	7f8007b7          	lui	a5,0x7f800
    cb46:	02f71c63          	bne	a4,a5,cb7e <ulperrf+0x110>
		got = copysignf(0x1p127, got);
    cb4a:	00024797          	auipc	a5,0x24
    cb4e:	f1678793          	addi	a5,a5,-234 # 30a60 <__clzdi2+0x848>
    cb52:	0007a787          	flw	fa5,0(a5)
    cb56:	fcc42587          	flw	fa1,-52(s0)
    cb5a:	20f78553          	fmv.s	fa0,fa5
    cb5e:	d72ff0ef          	jal	ra,c0d0 <copysignf@plt>
    cb62:	fca42627          	fsw	fa0,-52(s0)
		want *= 0.5;
    cb66:	fc842707          	flw	fa4,-56(s0)
    cb6a:	00024797          	auipc	a5,0x24
    cb6e:	efa78793          	addi	a5,a5,-262 # 30a64 <__clzdi2+0x84c>
    cb72:	0007a787          	flw	fa5,0(a5)
    cb76:	10f777d3          	fmul.s	fa5,fa4,fa5
    cb7a:	fcf42427          	fsw	fa5,-56(s0)
	}
	return scalbn(got - want, -eulpf(want)) + dwant;
    cb7e:	fcc42707          	flw	fa4,-52(s0)
    cb82:	fc842787          	flw	fa5,-56(s0)
    cb86:	08f777d3          	fsub.s	fa5,fa4,fa5
    cb8a:	42078453          	fcvt.d.s	fs0,fa5
    cb8e:	fc842507          	flw	fa0,-56(s0)
    cb92:	e35ff0ef          	jal	ra,c9c6 <eulpf>
    cb96:	87aa                	mv	a5,a0
    cb98:	40f007bb          	negw	a5,a5
    cb9c:	2781                	sext.w	a5,a5
    cb9e:	853e                	mv	a0,a5
    cba0:	22840553          	fmv.d	fa0,fs0
    cba4:	dbcff0ef          	jal	ra,c160 <scalbn@plt>
    cba8:	22a50753          	fmv.d	fa4,fa0
    cbac:	fc442787          	flw	fa5,-60(s0)
    cbb0:	420787d3          	fcvt.d.s	fa5,fa5
    cbb4:	02f777d3          	fadd.d	fa5,fa4,fa5
    cbb8:	4017f7d3          	fcvt.s.d	fa5,fa5
}
    cbbc:	20f78553          	fmv.s	fa0,fa5
    cbc0:	70e2                	ld	ra,56(sp)
    cbc2:	7442                	ld	s0,48(sp)
    cbc4:	74a2                	ld	s1,40(sp)
    cbc6:	2462                	fld	fs0,24(sp)
    cbc8:	6121                	addi	sp,sp,64
    cbca:	8082                	ret

000000000000cbcc <ulperr>:

float ulperr(double got, double want, float dwant)
{
    cbcc:	715d                	addi	sp,sp,-80
    cbce:	e486                	sd	ra,72(sp)
    cbd0:	e0a2                	sd	s0,64(sp)
    cbd2:	fc26                	sd	s1,56(sp)
    cbd4:	b422                	fsd	fs0,40(sp)
    cbd6:	0880                	addi	s0,sp,80
    cbd8:	fca43427          	fsd	fa0,-56(s0)
    cbdc:	fcb43027          	fsd	fa1,-64(s0)
    cbe0:	fac42e27          	fsw	fa2,-68(s0)
	if (isnan(got) && isnan(want))
    cbe4:	fc843507          	fld	fa0,-56(s0)
    cbe8:	c01ff0ef          	jal	ra,c7e8 <__DOUBLE_BITS>
    cbec:	872a                	mv	a4,a0
    cbee:	57fd                	li	a5,-1
    cbf0:	8385                	srli	a5,a5,0x1
    cbf2:	8f7d                	and	a4,a4,a5
    cbf4:	7ff00793          	li	a5,2047
    cbf8:	17d2                	slli	a5,a5,0x34
    cbfa:	02e7f263          	bgeu	a5,a4,cc1e <ulperr+0x52>
    cbfe:	fc043507          	fld	fa0,-64(s0)
    cc02:	be7ff0ef          	jal	ra,c7e8 <__DOUBLE_BITS>
    cc06:	872a                	mv	a4,a0
    cc08:	57fd                	li	a5,-1
    cc0a:	8385                	srli	a5,a5,0x1
    cc0c:	8f7d                	and	a4,a4,a5
    cc0e:	7ff00793          	li	a5,2047
    cc12:	17d2                	slli	a5,a5,0x34
    cc14:	00e7f563          	bgeu	a5,a4,cc1e <ulperr+0x52>
		return 0;
    cc18:	f00007d3          	fmv.w.x	fa5,zero
    cc1c:	a0f1                	j	cce8 <ulperr+0x11c>
	if (got == want) {
    cc1e:	fc843707          	fld	fa4,-56(s0)
    cc22:	fc043787          	fld	fa5,-64(s0)
    cc26:	a2f727d3          	feq.d	a5,fa4,fa5
    cc2a:	cf8d                	beqz	a5,cc64 <ulperr+0x98>
		if (signbit(got) == signbit(want))
    cc2c:	fc843507          	fld	fa0,-56(s0)
    cc30:	bb9ff0ef          	jal	ra,c7e8 <__DOUBLE_BITS>
    cc34:	87aa                	mv	a5,a0
    cc36:	93fd                	srli	a5,a5,0x3f
    cc38:	0007849b          	sext.w	s1,a5
    cc3c:	fc043507          	fld	fa0,-64(s0)
    cc40:	ba9ff0ef          	jal	ra,c7e8 <__DOUBLE_BITS>
    cc44:	87aa                	mv	a5,a0
    cc46:	93fd                	srli	a5,a5,0x3f
    cc48:	2781                	sext.w	a5,a5
    cc4a:	8726                	mv	a4,s1
    cc4c:	00f71563          	bne	a4,a5,cc56 <ulperr+0x8a>
			return dwant;
    cc50:	fbc42787          	flw	fa5,-68(s0)
    cc54:	a851                	j	cce8 <ulperr+0x11c>
		return inf; // treat 0 sign errors badly
    cc56:	00024797          	auipc	a5,0x24
    cc5a:	e0678793          	addi	a5,a5,-506 # 30a5c <__clzdi2+0x844>
    cc5e:	0007a787          	flw	fa5,0(a5)
    cc62:	a059                	j	cce8 <ulperr+0x11c>
	}
	if (isinf(got)) {
    cc64:	fc843507          	fld	fa0,-56(s0)
    cc68:	b81ff0ef          	jal	ra,c7e8 <__DOUBLE_BITS>
    cc6c:	872a                	mv	a4,a0
    cc6e:	57fd                	li	a5,-1
    cc70:	8385                	srli	a5,a5,0x1
    cc72:	8f7d                	and	a4,a4,a5
    cc74:	7ff00793          	li	a5,2047
    cc78:	17d2                	slli	a5,a5,0x34
    cc7a:	02f71a63          	bne	a4,a5,ccae <ulperr+0xe2>
		got = copysign(0x1p1023, got);
    cc7e:	00024797          	auipc	a5,0x24
    cc82:	dea78793          	addi	a5,a5,-534 # 30a68 <__clzdi2+0x850>
    cc86:	239c                	fld	fa5,0(a5)
    cc88:	fc843587          	fld	fa1,-56(s0)
    cc8c:	22f78553          	fmv.d	fa0,fa5
    cc90:	c20ff0ef          	jal	ra,c0b0 <copysign@plt>
    cc94:	fca43427          	fsd	fa0,-56(s0)
		want *= 0.5;
    cc98:	fc043707          	fld	fa4,-64(s0)
    cc9c:	00024797          	auipc	a5,0x24
    cca0:	dd478793          	addi	a5,a5,-556 # 30a70 <__clzdi2+0x858>
    cca4:	239c                	fld	fa5,0(a5)
    cca6:	12f777d3          	fmul.d	fa5,fa4,fa5
    ccaa:	fcf43027          	fsd	fa5,-64(s0)
	}
	return scalbn(got - want, -eulp(want)) + dwant;
    ccae:	fc843707          	fld	fa4,-56(s0)
    ccb2:	fc043787          	fld	fa5,-64(s0)
    ccb6:	0af77453          	fsub.d	fs0,fa4,fa5
    ccba:	fc043507          	fld	fa0,-64(s0)
    ccbe:	d53ff0ef          	jal	ra,ca10 <eulp>
    ccc2:	87aa                	mv	a5,a0
    ccc4:	40f007bb          	negw	a5,a5
    ccc8:	2781                	sext.w	a5,a5
    ccca:	853e                	mv	a0,a5
    cccc:	22840553          	fmv.d	fa0,fs0
    ccd0:	c90ff0ef          	jal	ra,c160 <scalbn@plt>
    ccd4:	22a50753          	fmv.d	fa4,fa0
    ccd8:	fbc42787          	flw	fa5,-68(s0)
    ccdc:	420787d3          	fcvt.d.s	fa5,fa5
    cce0:	02f777d3          	fadd.d	fa5,fa4,fa5
    cce4:	4017f7d3          	fcvt.s.d	fa5,fa5
}
    cce8:	20f78553          	fmv.s	fa0,fa5
    ccec:	60a6                	ld	ra,72(sp)
    ccee:	6406                	ld	s0,64(sp)
    ccf0:	74e2                	ld	s1,56(sp)
    ccf2:	3422                	fld	fs0,40(sp)
    ccf4:	6161                	addi	sp,sp,80
    ccf6:	8082                	ret

000000000000ccf8 <ulperrl>:

float ulperrl(long double got, long double want, float dwant)
{
    ccf8:	7139                	addi	sp,sp,-64
    ccfa:	fc22                	sd	s0,56(sp)
    ccfc:	0080                	addi	s0,sp,64
    ccfe:	fea43023          	sd	a0,-32(s0)
    cd02:	feb43423          	sd	a1,-24(s0)
    cd06:	fcc43823          	sd	a2,-48(s0)
    cd0a:	fcd43c23          	sd	a3,-40(s0)
    cd0e:	fca42627          	fsw	fa0,-52(s0)
		want *= 0.5;
	}
	return scalbnl(got - want, -eulpl(want)) + dwant;
#else
	// TODO
	return inf;
    cd12:	00024797          	auipc	a5,0x24
    cd16:	d4a78793          	addi	a5,a5,-694 # 30a5c <__clzdi2+0x844>
    cd1a:	0007a787          	flw	fa5,0(a5)
#endif
}
    cd1e:	20f78553          	fmv.s	fa0,fa5
    cd22:	7462                	ld	s0,56(sp)
    cd24:	6121                	addi	sp,sp,64
    cd26:	8082                	ret

000000000000cd28 <estr>:
	flag(UNDERFLOW),
	flag(OVERFLOW)
};

char *estr(int f)
{
    cd28:	7179                	addi	sp,sp,-48
    cd2a:	f406                	sd	ra,40(sp)
    cd2c:	f022                	sd	s0,32(sp)
    cd2e:	1800                	addi	s0,sp,48
    cd30:	87aa                	mv	a5,a0
    cd32:	fcf42e23          	sw	a5,-36(s0)
	static char buf[256];
	char *p = buf;
    cd36:	00051797          	auipc	a5,0x51
    cd3a:	39a78793          	addi	a5,a5,922 # 5e0d0 <buf.0>
    cd3e:	fef43423          	sd	a5,-24(s0)
	int i, all = 0;
    cd42:	fe042223          	sw	zero,-28(s0)

	for (i = 0; i < length(eflags); i++)
    cd46:	fe042023          	sw	zero,-32(s0)
    cd4a:	a849                	j	cddc <estr+0xb4>
		if (f & eflags[i].flag) {
    cd4c:	0004f717          	auipc	a4,0x4f
    cd50:	9bc70713          	addi	a4,a4,-1604 # 5b708 <eflags>
    cd54:	fe042783          	lw	a5,-32(s0)
    cd58:	0792                	slli	a5,a5,0x4
    cd5a:	97ba                	add	a5,a5,a4
    cd5c:	439c                	lw	a5,0(a5)
    cd5e:	fdc42703          	lw	a4,-36(s0)
    cd62:	8ff9                	and	a5,a5,a4
    cd64:	2781                	sext.w	a5,a5
    cd66:	c7b5                	beqz	a5,cdd2 <estr+0xaa>
			p += sprintf(p, "%s%s", all ? "|" : "", eflags[i].s);
    cd68:	fe442783          	lw	a5,-28(s0)
    cd6c:	2781                	sext.w	a5,a5
    cd6e:	c791                	beqz	a5,cd7a <estr+0x52>
    cd70:	00024717          	auipc	a4,0x24
    cd74:	c9070713          	addi	a4,a4,-880 # 30a00 <__clzdi2+0x7e8>
    cd78:	a029                	j	cd82 <estr+0x5a>
    cd7a:	00024717          	auipc	a4,0x24
    cd7e:	c8e70713          	addi	a4,a4,-882 # 30a08 <__clzdi2+0x7f0>
    cd82:	0004f697          	auipc	a3,0x4f
    cd86:	98668693          	addi	a3,a3,-1658 # 5b708 <eflags>
    cd8a:	fe042783          	lw	a5,-32(s0)
    cd8e:	0792                	slli	a5,a5,0x4
    cd90:	97b6                	add	a5,a5,a3
    cd92:	679c                	ld	a5,8(a5)
    cd94:	86be                	mv	a3,a5
    cd96:	863a                	mv	a2,a4
    cd98:	00024597          	auipc	a1,0x24
    cd9c:	c7858593          	addi	a1,a1,-904 # 30a10 <__clzdi2+0x7f8>
    cda0:	fe843503          	ld	a0,-24(s0)
    cda4:	b4cff0ef          	jal	ra,c0f0 <sprintf@plt>
    cda8:	87aa                	mv	a5,a0
    cdaa:	873e                	mv	a4,a5
    cdac:	fe843783          	ld	a5,-24(s0)
    cdb0:	97ba                	add	a5,a5,a4
    cdb2:	fef43423          	sd	a5,-24(s0)
			all |= eflags[i].flag;
    cdb6:	0004f717          	auipc	a4,0x4f
    cdba:	95270713          	addi	a4,a4,-1710 # 5b708 <eflags>
    cdbe:	fe042783          	lw	a5,-32(s0)
    cdc2:	0792                	slli	a5,a5,0x4
    cdc4:	97ba                	add	a5,a5,a4
    cdc6:	439c                	lw	a5,0(a5)
    cdc8:	fe442703          	lw	a4,-28(s0)
    cdcc:	8fd9                	or	a5,a5,a4
    cdce:	fef42223          	sw	a5,-28(s0)
	for (i = 0; i < length(eflags); i++)
    cdd2:	fe042783          	lw	a5,-32(s0)
    cdd6:	2785                	addiw	a5,a5,1
    cdd8:	fef42023          	sw	a5,-32(s0)
    cddc:	fe042783          	lw	a5,-32(s0)
    cde0:	873e                	mv	a4,a5
    cde2:	4791                	li	a5,4
    cde4:	f6e7f4e3          	bgeu	a5,a4,cd4c <estr+0x24>
		}
	if (all != f) {
    cde8:	fe442783          	lw	a5,-28(s0)
    cdec:	873e                	mv	a4,a5
    cdee:	fdc42783          	lw	a5,-36(s0)
    cdf2:	2701                	sext.w	a4,a4
    cdf4:	2781                	sext.w	a5,a5
    cdf6:	04f70d63          	beq	a4,a5,ce50 <estr+0x128>
		p += sprintf(p, "%s%d", all ? "|" : "", f & ~all);
    cdfa:	fe442783          	lw	a5,-28(s0)
    cdfe:	2781                	sext.w	a5,a5
    ce00:	c791                	beqz	a5,ce0c <estr+0xe4>
    ce02:	00024797          	auipc	a5,0x24
    ce06:	bfe78793          	addi	a5,a5,-1026 # 30a00 <__clzdi2+0x7e8>
    ce0a:	a029                	j	ce14 <estr+0xec>
    ce0c:	00024797          	auipc	a5,0x24
    ce10:	bfc78793          	addi	a5,a5,-1028 # 30a08 <__clzdi2+0x7f0>
    ce14:	fe442703          	lw	a4,-28(s0)
    ce18:	fff74713          	not	a4,a4
    ce1c:	2701                	sext.w	a4,a4
    ce1e:	fdc42683          	lw	a3,-36(s0)
    ce22:	8f75                	and	a4,a4,a3
    ce24:	2701                	sext.w	a4,a4
    ce26:	86ba                	mv	a3,a4
    ce28:	863e                	mv	a2,a5
    ce2a:	00024597          	auipc	a1,0x24
    ce2e:	bee58593          	addi	a1,a1,-1042 # 30a18 <__clzdi2+0x800>
    ce32:	fe843503          	ld	a0,-24(s0)
    ce36:	abaff0ef          	jal	ra,c0f0 <sprintf@plt>
    ce3a:	87aa                	mv	a5,a0
    ce3c:	873e                	mv	a4,a5
    ce3e:	fe843783          	ld	a5,-24(s0)
    ce42:	97ba                	add	a5,a5,a4
    ce44:	fef43423          	sd	a5,-24(s0)
		all = f;
    ce48:	fdc42783          	lw	a5,-36(s0)
    ce4c:	fef42223          	sw	a5,-28(s0)
	}
	p += sprintf(p, "%s", all ? "" : "0");
    ce50:	fe442783          	lw	a5,-28(s0)
    ce54:	2781                	sext.w	a5,a5
    ce56:	c791                	beqz	a5,ce62 <estr+0x13a>
    ce58:	00024797          	auipc	a5,0x24
    ce5c:	bb078793          	addi	a5,a5,-1104 # 30a08 <__clzdi2+0x7f0>
    ce60:	a029                	j	ce6a <estr+0x142>
    ce62:	00024797          	auipc	a5,0x24
    ce66:	bbe78793          	addi	a5,a5,-1090 # 30a20 <__clzdi2+0x808>
    ce6a:	863e                	mv	a2,a5
    ce6c:	00024597          	auipc	a1,0x24
    ce70:	bbc58593          	addi	a1,a1,-1092 # 30a28 <__clzdi2+0x810>
    ce74:	fe843503          	ld	a0,-24(s0)
    ce78:	a78ff0ef          	jal	ra,c0f0 <sprintf@plt>
    ce7c:	87aa                	mv	a5,a0
    ce7e:	873e                	mv	a4,a5
    ce80:	fe843783          	ld	a5,-24(s0)
    ce84:	97ba                	add	a5,a5,a4
    ce86:	fef43423          	sd	a5,-24(s0)
	return buf;
    ce8a:	00051797          	auipc	a5,0x51
    ce8e:	24678793          	addi	a5,a5,582 # 5e0d0 <buf.0>
}
    ce92:	853e                	mv	a0,a5
    ce94:	70a2                	ld	ra,40(sp)
    ce96:	7402                	ld	s0,32(sp)
    ce98:	6145                	addi	sp,sp,48
    ce9a:	8082                	ret

000000000000ce9c <rstr>:

char *rstr(int r)
{
    ce9c:	1101                	addi	sp,sp,-32
    ce9e:	ec22                	sd	s0,24(sp)
    cea0:	1000                	addi	s0,sp,32
    cea2:	87aa                	mv	a5,a0
    cea4:	fef42623          	sw	a5,-20(s0)
	switch (r) {
    cea8:	fec42783          	lw	a5,-20(s0)
    ceac:	0007871b          	sext.w	a4,a5
    ceb0:	478d                	li	a5,3
    ceb2:	04f70d63          	beq	a4,a5,cf0c <rstr+0x70>
    ceb6:	fec42783          	lw	a5,-20(s0)
    ceba:	0007871b          	sext.w	a4,a5
    cebe:	478d                	li	a5,3
    cec0:	06e7c063          	blt	a5,a4,cf20 <rstr+0x84>
    cec4:	fec42783          	lw	a5,-20(s0)
    cec8:	0007871b          	sext.w	a4,a5
    cecc:	4789                	li	a5,2
    cece:	04f70463          	beq	a4,a5,cf16 <rstr+0x7a>
    ced2:	fec42783          	lw	a5,-20(s0)
    ced6:	0007871b          	sext.w	a4,a5
    ceda:	4789                	li	a5,2
    cedc:	04e7c263          	blt	a5,a4,cf20 <rstr+0x84>
    cee0:	fec42783          	lw	a5,-20(s0)
    cee4:	2781                	sext.w	a5,a5
    cee6:	cb89                	beqz	a5,cef8 <rstr+0x5c>
    cee8:	fec42783          	lw	a5,-20(s0)
    ceec:	0007871b          	sext.w	a4,a5
    cef0:	4785                	li	a5,1
    cef2:	00f70863          	beq	a4,a5,cf02 <rstr+0x66>
    cef6:	a02d                	j	cf20 <rstr+0x84>
	case RN: return "RN";
    cef8:	00024797          	auipc	a5,0x24
    cefc:	b3878793          	addi	a5,a5,-1224 # 30a30 <__clzdi2+0x818>
    cf00:	a025                	j	cf28 <rstr+0x8c>
#ifdef FE_TOWARDZERO
	case RZ: return "RZ";
    cf02:	00024797          	auipc	a5,0x24
    cf06:	b3678793          	addi	a5,a5,-1226 # 30a38 <__clzdi2+0x820>
    cf0a:	a839                	j	cf28 <rstr+0x8c>
#endif
#ifdef FE_UPWARD
	case RU: return "RU";
    cf0c:	00024797          	auipc	a5,0x24
    cf10:	b3478793          	addi	a5,a5,-1228 # 30a40 <__clzdi2+0x828>
    cf14:	a811                	j	cf28 <rstr+0x8c>
#endif
#ifdef FE_DOWNWARD
	case RD: return "RD";
    cf16:	00024797          	auipc	a5,0x24
    cf1a:	b3278793          	addi	a5,a5,-1230 # 30a48 <__clzdi2+0x830>
    cf1e:	a029                	j	cf28 <rstr+0x8c>
#endif
	}
	return "R?";
    cf20:	00024797          	auipc	a5,0x24
    cf24:	b3078793          	addi	a5,a5,-1232 # 30a50 <__clzdi2+0x838>
}
    cf28:	853e                	mv	a0,a5
    cf2a:	6462                	ld	s0,24(sp)
    cf2c:	6105                	addi	sp,sp,32
    cf2e:	8082                	ret

000000000000cf30 <t_pathrel>:
#include <stdio.h>
#include "test.h"

/* relative path to p */
char *t_pathrel(char *buf, size_t n, char *argv0, char *p)
{
    cf30:	7139                	addi	sp,sp,-64
    cf32:	fc06                	sd	ra,56(sp)
    cf34:	f822                	sd	s0,48(sp)
    cf36:	0080                	addi	s0,sp,64
    cf38:	fca43c23          	sd	a0,-40(s0)
    cf3c:	fcb43823          	sd	a1,-48(s0)
    cf40:	fcc43423          	sd	a2,-56(s0)
    cf44:	fcd43023          	sd	a3,-64(s0)
	char *s = strrchr(argv0, '/');
    cf48:	02f00593          	li	a1,47
    cf4c:	fc843503          	ld	a0,-56(s0)
    cf50:	bb1fe0ef          	jal	ra,bb00 <strrchr@plt>
    cf54:	fea43423          	sd	a0,-24(s0)
	int k;

	if (s)
    cf58:	fe843783          	ld	a5,-24(s0)
    cf5c:	cb9d                	beqz	a5,cf92 <t_pathrel+0x62>
		k = snprintf(buf, n, "%.*s/%s", (int)(s-argv0), argv0, p);
    cf5e:	fe843703          	ld	a4,-24(s0)
    cf62:	fc843783          	ld	a5,-56(s0)
    cf66:	40f707b3          	sub	a5,a4,a5
    cf6a:	0007869b          	sext.w	a3,a5
    cf6e:	fc043783          	ld	a5,-64(s0)
    cf72:	fc843703          	ld	a4,-56(s0)
    cf76:	00024617          	auipc	a2,0x24
    cf7a:	b0260613          	addi	a2,a2,-1278 # 30a78 <__clzdi2+0x860>
    cf7e:	fd043583          	ld	a1,-48(s0)
    cf82:	fd843503          	ld	a0,-40(s0)
    cf86:	ecafe0ef          	jal	ra,b650 <snprintf@plt>
    cf8a:	87aa                	mv	a5,a0
    cf8c:	fef42223          	sw	a5,-28(s0)
    cf90:	a005                	j	cfb0 <t_pathrel+0x80>
	else
		k = snprintf(buf, n, "./%s", p);
    cf92:	fc043683          	ld	a3,-64(s0)
    cf96:	00024617          	auipc	a2,0x24
    cf9a:	aea60613          	addi	a2,a2,-1302 # 30a80 <__clzdi2+0x868>
    cf9e:	fd043583          	ld	a1,-48(s0)
    cfa2:	fd843503          	ld	a0,-40(s0)
    cfa6:	eaafe0ef          	jal	ra,b650 <snprintf@plt>
    cfaa:	87aa                	mv	a5,a0
    cfac:	fef42223          	sw	a5,-28(s0)
	if ((size_t)k >= n)
    cfb0:	fe442783          	lw	a5,-28(s0)
    cfb4:	fd043703          	ld	a4,-48(s0)
    cfb8:	00e7e463          	bltu	a5,a4,cfc0 <t_pathrel+0x90>
		return 0;
    cfbc:	4781                	li	a5,0
    cfbe:	a019                	j	cfc4 <t_pathrel+0x94>
	return buf;
    cfc0:	fd843783          	ld	a5,-40(s0)
}
    cfc4:	853e                	mv	a0,a5
    cfc6:	70e2                	ld	ra,56(sp)
    cfc8:	7442                	ld	s0,48(sp)
    cfca:	6121                	addi	sp,sp,64
    cfcc:	8082                	ret

000000000000cfce <t_printf>:
#include "test.h"

volatile int t_status = 0;

int t_printf(const char *s, ...)
{
    cfce:	d8010113          	addi	sp,sp,-640
    cfd2:	22113c23          	sd	ra,568(sp)
    cfd6:	22813823          	sd	s0,560(sp)
    cfda:	0480                	addi	s0,sp,576
    cfdc:	dca43423          	sd	a0,-568(s0)
    cfe0:	e40c                	sd	a1,8(s0)
    cfe2:	e810                	sd	a2,16(s0)
    cfe4:	ec14                	sd	a3,24(s0)
    cfe6:	f018                	sd	a4,32(s0)
    cfe8:	f41c                	sd	a5,40(s0)
    cfea:	03043823          	sd	a6,48(s0)
    cfee:	03143c23          	sd	a7,56(s0)
    cff2:	00051797          	auipc	a5,0x51
    cff6:	06e7b783          	ld	a5,110(a5) # 5e060 <__stack_chk_guard>
    cffa:	6398                	ld	a4,0(a5)
    cffc:	fee43423          	sd	a4,-24(s0)
    d000:	4701                	li	a4,0
	va_list ap;
	char buf[512];
	int n;

	t_status = 1;
    d002:	00051797          	auipc	a5,0x51
    d006:	1ce78793          	addi	a5,a5,462 # 5e1d0 <t_status>
    d00a:	4705                	li	a4,1
    d00c:	c398                	sw	a4,0(a5)
	va_start(ap, s);
    d00e:	04040793          	addi	a5,s0,64
    d012:	dcf43023          	sd	a5,-576(s0)
    d016:	dc043783          	ld	a5,-576(s0)
    d01a:	fc878793          	addi	a5,a5,-56
    d01e:	def43023          	sd	a5,-544(s0)
	n = vsnprintf(buf, sizeof buf, s, ap);
    d022:	de043703          	ld	a4,-544(s0)
    d026:	de840793          	addi	a5,s0,-536
    d02a:	86ba                	mv	a3,a4
    d02c:	dc843603          	ld	a2,-568(s0)
    d030:	20000593          	li	a1,512
    d034:	853e                	mv	a0,a5
    d036:	90bfe0ef          	jal	ra,b940 <vsnprintf@plt>
    d03a:	87aa                	mv	a5,a0
    d03c:	dcf42e23          	sw	a5,-548(s0)
	va_end(ap);
	if (n < 0)
    d040:	ddc42783          	lw	a5,-548(s0)
    d044:	2781                	sext.w	a5,a5
    d046:	0007d563          	bgez	a5,d050 <t_printf+0x82>
		n = 0;
    d04a:	dc042e23          	sw	zero,-548(s0)
    d04e:	a09d                	j	d0b4 <t_printf+0xe6>
	else if (n >= sizeof buf) {
    d050:	ddc42783          	lw	a5,-548(s0)
    d054:	873e                	mv	a4,a5
    d056:	1ff00793          	li	a5,511
    d05a:	04e7fd63          	bgeu	a5,a4,d0b4 <t_printf+0xe6>
		n = sizeof buf;
    d05e:	20000793          	li	a5,512
    d062:	dcf42e23          	sw	a5,-548(s0)
		buf[n - 1] = '\n';
    d066:	ddc42783          	lw	a5,-548(s0)
    d06a:	37fd                	addiw	a5,a5,-1
    d06c:	2781                	sext.w	a5,a5
    d06e:	17c1                	addi	a5,a5,-16
    d070:	97a2                	add	a5,a5,s0
    d072:	4729                	li	a4,10
    d074:	dee78c23          	sb	a4,-520(a5)
		buf[n - 2] = '.';
    d078:	ddc42783          	lw	a5,-548(s0)
    d07c:	37f9                	addiw	a5,a5,-2
    d07e:	2781                	sext.w	a5,a5
    d080:	17c1                	addi	a5,a5,-16
    d082:	97a2                	add	a5,a5,s0
    d084:	02e00713          	li	a4,46
    d088:	dee78c23          	sb	a4,-520(a5)
		buf[n - 3] = '.';
    d08c:	ddc42783          	lw	a5,-548(s0)
    d090:	37f5                	addiw	a5,a5,-3
    d092:	2781                	sext.w	a5,a5
    d094:	17c1                	addi	a5,a5,-16
    d096:	97a2                	add	a5,a5,s0
    d098:	02e00713          	li	a4,46
    d09c:	dee78c23          	sb	a4,-520(a5)
		buf[n - 4] = '.';
    d0a0:	ddc42783          	lw	a5,-548(s0)
    d0a4:	37f1                	addiw	a5,a5,-4
    d0a6:	2781                	sext.w	a5,a5
    d0a8:	17c1                	addi	a5,a5,-16
    d0aa:	97a2                	add	a5,a5,s0
    d0ac:	02e00713          	li	a4,46
    d0b0:	dee78c23          	sb	a4,-520(a5)
	}
	return write(1, buf, n);
    d0b4:	ddc42703          	lw	a4,-548(s0)
    d0b8:	de840793          	addi	a5,s0,-536
    d0bc:	863a                	mv	a2,a4
    d0be:	85be                	mv	a1,a5
    d0c0:	4505                	li	a0,1
    d0c2:	abffe0ef          	jal	ra,bb80 <write@plt>
    d0c6:	87aa                	mv	a5,a0
    d0c8:	2781                	sext.w	a5,a5
    d0ca:	873e                	mv	a4,a5
}
    d0cc:	00051797          	auipc	a5,0x51
    d0d0:	f947b783          	ld	a5,-108(a5) # 5e060 <__stack_chk_guard>
    d0d4:	fe843683          	ld	a3,-24(s0)
    d0d8:	639c                	ld	a5,0(a5)
    d0da:	8fb5                	xor	a5,a5,a3
    d0dc:	4681                	li	a3,0
    d0de:	c399                	beqz	a5,d0e4 <t_printf+0x116>
    d0e0:	9a1fe0ef          	jal	ra,ba80 <__stack_chk_fail@plt>
    d0e4:	853a                	mv	a0,a4
    d0e6:	23813083          	ld	ra,568(sp)
    d0ea:	23013403          	ld	s0,560(sp)
    d0ee:	28010113          	addi	sp,sp,640
    d0f2:	8082                	ret

000000000000d0f4 <rand32>:
#include <stdlib.h>

// TODO: use large period prng
static uint64_t seed = -1;
static uint32_t rand32(void)
{
    d0f4:	1141                	addi	sp,sp,-16
    d0f6:	e422                	sd	s0,8(sp)
    d0f8:	0800                	addi	s0,sp,16
	seed = 6364136223846793005ULL*seed + 1;
    d0fa:	0004e797          	auipc	a5,0x4e
    d0fe:	65e78793          	addi	a5,a5,1630 # 5b758 <seed>
    d102:	6398                	ld	a4,0(a5)
    d104:	00024797          	auipc	a5,0x24
    d108:	98c78793          	addi	a5,a5,-1652 # 30a90 <__clzdi2+0x878>
    d10c:	639c                	ld	a5,0(a5)
    d10e:	02f707b3          	mul	a5,a4,a5
    d112:	00178713          	addi	a4,a5,1
    d116:	0004e797          	auipc	a5,0x4e
    d11a:	64278793          	addi	a5,a5,1602 # 5b758 <seed>
    d11e:	e398                	sd	a4,0(a5)
	return seed >> 32;
    d120:	0004e797          	auipc	a5,0x4e
    d124:	63878793          	addi	a5,a5,1592 # 5b758 <seed>
    d128:	639c                	ld	a5,0(a5)
    d12a:	9381                	srli	a5,a5,0x20
    d12c:	2781                	sext.w	a5,a5
}
    d12e:	853e                	mv	a0,a5
    d130:	6422                	ld	s0,8(sp)
    d132:	0141                	addi	sp,sp,16
    d134:	8082                	ret

000000000000d136 <rand64>:
static uint64_t rand64(void)
{
    d136:	7179                	addi	sp,sp,-48
    d138:	f406                	sd	ra,40(sp)
    d13a:	f022                	sd	s0,32(sp)
    d13c:	ec26                	sd	s1,24(sp)
    d13e:	1800                	addi	s0,sp,48
	uint64_t u = rand32();
    d140:	fb5ff0ef          	jal	ra,d0f4 <rand32>
    d144:	87aa                	mv	a5,a0
    d146:	2781                	sext.w	a5,a5
    d148:	1782                	slli	a5,a5,0x20
    d14a:	9381                	srli	a5,a5,0x20
    d14c:	fcf43c23          	sd	a5,-40(s0)
	return u<<32 | rand32();
    d150:	fd843783          	ld	a5,-40(s0)
    d154:	02079493          	slli	s1,a5,0x20
    d158:	f9dff0ef          	jal	ra,d0f4 <rand32>
    d15c:	87aa                	mv	a5,a0
    d15e:	2781                	sext.w	a5,a5
    d160:	1782                	slli	a5,a5,0x20
    d162:	9381                	srli	a5,a5,0x20
    d164:	8fc5                	or	a5,a5,s1
}
    d166:	853e                	mv	a0,a5
    d168:	70a2                	ld	ra,40(sp)
    d16a:	7402                	ld	s0,32(sp)
    d16c:	64e2                	ld	s1,24(sp)
    d16e:	6145                	addi	sp,sp,48
    d170:	8082                	ret

000000000000d172 <frand>:
static double frand()
{
    d172:	1141                	addi	sp,sp,-16
    d174:	e406                	sd	ra,8(sp)
    d176:	e022                	sd	s0,0(sp)
    d178:	0800                	addi	s0,sp,16
	return rand64() * 0x1p-64;
    d17a:	fbdff0ef          	jal	ra,d136 <rand64>
    d17e:	87aa                	mv	a5,a0
    d180:	d237f753          	fcvt.d.lu	fa4,a5
    d184:	00024797          	auipc	a5,0x24
    d188:	91478793          	addi	a5,a5,-1772 # 30a98 <__clzdi2+0x880>
    d18c:	239c                	fld	fa5,0(a5)
    d18e:	12f777d3          	fmul.d	fa5,fa4,fa5
}
    d192:	22f78553          	fmv.d	fa0,fa5
    d196:	60a2                	ld	ra,8(sp)
    d198:	6402                	ld	s0,0(sp)
    d19a:	0141                	addi	sp,sp,16
    d19c:	8082                	ret

000000000000d19e <frandf>:
static float frandf()
{
    d19e:	1141                	addi	sp,sp,-16
    d1a0:	e406                	sd	ra,8(sp)
    d1a2:	e022                	sd	s0,0(sp)
    d1a4:	0800                	addi	s0,sp,16
	return rand32() * 0x1p-32f;
    d1a6:	f4fff0ef          	jal	ra,d0f4 <rand32>
    d1aa:	87aa                	mv	a5,a0
    d1ac:	2781                	sext.w	a5,a5
    d1ae:	d017f753          	fcvt.s.wu	fa4,a5
    d1b2:	00024797          	auipc	a5,0x24
    d1b6:	8ee78793          	addi	a5,a5,-1810 # 30aa0 <__clzdi2+0x888>
    d1ba:	0007a787          	flw	fa5,0(a5)
    d1be:	10f777d3          	fmul.s	fa5,fa4,fa5
}
    d1c2:	20f78553          	fmv.s	fa0,fa5
    d1c6:	60a2                	ld	ra,8(sp)
    d1c8:	6402                	ld	s0,0(sp)
    d1ca:	0141                	addi	sp,sp,16
    d1cc:	8082                	ret

000000000000d1ce <frandl>:
static long double frandl()
{
    d1ce:	1101                	addi	sp,sp,-32
    d1d0:	ec06                	sd	ra,24(sp)
    d1d2:	e822                	sd	s0,16(sp)
    d1d4:	e44a                	sd	s2,8(sp)
    d1d6:	e04e                	sd	s3,0(sp)
    d1d8:	1000                	addi	s0,sp,32
	return rand64() * 0x1p-64L
    d1da:	f5dff0ef          	jal	ra,d136 <rand64>
    d1de:	87aa                	mv	a5,a0
    d1e0:	853e                	mv	a0,a5
    d1e2:	7cb220ef          	jal	ra,301ac <__floatunditf>
    d1e6:	882a                	mv	a6,a0
    d1e8:	88ae                	mv	a7,a1
    d1ea:	00024797          	auipc	a5,0x24
    d1ee:	8c678793          	addi	a5,a5,-1850 # 30ab0 <__clzdi2+0x898>
    d1f2:	6390                	ld	a2,0(a5)
    d1f4:	6794                	ld	a3,8(a5)
    d1f6:	8542                	mv	a0,a6
    d1f8:	85c6                	mv	a1,a7
    d1fa:	081220ef          	jal	ra,2fa7a <__multf3>
    d1fe:	872a                	mv	a4,a0
    d200:	87ae                	mv	a5,a1
    d202:	893a                	mv	s2,a4
    d204:	89be                	mv	s3,a5
#if LDBL_MANT_DIG > 64
+ rand64() * 0x1p-128L
    d206:	f31ff0ef          	jal	ra,d136 <rand64>
    d20a:	87aa                	mv	a5,a0
    d20c:	853e                	mv	a0,a5
    d20e:	79f220ef          	jal	ra,301ac <__floatunditf>
    d212:	882a                	mv	a6,a0
    d214:	88ae                	mv	a7,a1
    d216:	00024797          	auipc	a5,0x24
    d21a:	8aa78793          	addi	a5,a5,-1878 # 30ac0 <__clzdi2+0x8a8>
    d21e:	6390                	ld	a2,0(a5)
    d220:	6794                	ld	a3,8(a5)
    d222:	8542                	mv	a0,a6
    d224:	85c6                	mv	a1,a7
    d226:	055220ef          	jal	ra,2fa7a <__multf3>
    d22a:	862a                	mv	a2,a0
    d22c:	86ae                	mv	a3,a1
    d22e:	8732                	mv	a4,a2
    d230:	87b6                	mv	a5,a3
    d232:	863a                	mv	a2,a4
    d234:	86be                	mv	a3,a5
    d236:	854a                	mv	a0,s2
    d238:	85ce                	mv	a1,s3
    d23a:	597210ef          	jal	ra,2efd0 <__addtf3>
    d23e:	872a                	mv	a4,a0
    d240:	87ae                	mv	a5,a1
    d242:	863a                	mv	a2,a4
    d244:	86be                	mv	a3,a5
    d246:	8732                	mv	a4,a2
    d248:	87b6                	mv	a5,a3
#endif
;
}
    d24a:	853a                	mv	a0,a4
    d24c:	85be                	mv	a1,a5
    d24e:	60e2                	ld	ra,24(sp)
    d250:	6442                	ld	s0,16(sp)
    d252:	6922                	ld	s2,8(sp)
    d254:	6982                	ld	s3,0(sp)
    d256:	6105                	addi	sp,sp,32
    d258:	8082                	ret

000000000000d25a <t_randseed>:

void t_randseed(uint64_t s)
{
    d25a:	1101                	addi	sp,sp,-32
    d25c:	ec22                	sd	s0,24(sp)
    d25e:	1000                	addi	s0,sp,32
    d260:	fea43423          	sd	a0,-24(s0)
	seed = s;
    d264:	0004e797          	auipc	a5,0x4e
    d268:	4f478793          	addi	a5,a5,1268 # 5b758 <seed>
    d26c:	fe843703          	ld	a4,-24(s0)
    d270:	e398                	sd	a4,0(a5)
}
    d272:	0001                	nop
    d274:	6462                	ld	s0,24(sp)
    d276:	6105                	addi	sp,sp,32
    d278:	8082                	ret

000000000000d27a <t_randn>:

/* uniform random in [0,n), n > 0 must hold */
uint64_t t_randn(uint64_t n)
{
    d27a:	7179                	addi	sp,sp,-48
    d27c:	f406                	sd	ra,40(sp)
    d27e:	f022                	sd	s0,32(sp)
    d280:	1800                	addi	s0,sp,48
    d282:	fca43c23          	sd	a0,-40(s0)
	uint64_t r, m;

	/* m is the largest multiple of n */
	m = -1;
    d286:	57fd                	li	a5,-1
    d288:	fef43023          	sd	a5,-32(s0)
	m -= m%n;
    d28c:	fe043703          	ld	a4,-32(s0)
    d290:	fd843783          	ld	a5,-40(s0)
    d294:	02f777b3          	remu	a5,a4,a5
    d298:	fe043703          	ld	a4,-32(s0)
    d29c:	40f707b3          	sub	a5,a4,a5
    d2a0:	fef43023          	sd	a5,-32(s0)
	while ((r = rand64()) >= m);
    d2a4:	0001                	nop
    d2a6:	e91ff0ef          	jal	ra,d136 <rand64>
    d2aa:	fea43423          	sd	a0,-24(s0)
    d2ae:	fe843703          	ld	a4,-24(s0)
    d2b2:	fe043783          	ld	a5,-32(s0)
    d2b6:	fef778e3          	bgeu	a4,a5,d2a6 <t_randn+0x2c>
	return r%n;
    d2ba:	fe843703          	ld	a4,-24(s0)
    d2be:	fd843783          	ld	a5,-40(s0)
    d2c2:	02f777b3          	remu	a5,a4,a5
}
    d2c6:	853e                	mv	a0,a5
    d2c8:	70a2                	ld	ra,40(sp)
    d2ca:	7402                	ld	s0,32(sp)
    d2cc:	6145                	addi	sp,sp,48
    d2ce:	8082                	ret

000000000000d2d0 <t_randint>:

/* uniform on [a,b], a <= b must hold */
uint64_t t_randint(uint64_t a, uint64_t b)
{
    d2d0:	7179                	addi	sp,sp,-48
    d2d2:	f406                	sd	ra,40(sp)
    d2d4:	f022                	sd	s0,32(sp)
    d2d6:	1800                	addi	s0,sp,48
    d2d8:	fca43c23          	sd	a0,-40(s0)
    d2dc:	fcb43823          	sd	a1,-48(s0)
	uint64_t n = b - a + 1;
    d2e0:	fd043703          	ld	a4,-48(s0)
    d2e4:	fd843783          	ld	a5,-40(s0)
    d2e8:	40f707b3          	sub	a5,a4,a5
    d2ec:	0785                	addi	a5,a5,1
    d2ee:	fef43423          	sd	a5,-24(s0)
	if (n)
    d2f2:	fe843783          	ld	a5,-24(s0)
    d2f6:	cb91                	beqz	a5,d30a <t_randint+0x3a>
		return a + t_randn(n);
    d2f8:	fe843503          	ld	a0,-24(s0)
    d2fc:	f7fff0ef          	jal	ra,d27a <t_randn>
    d300:	872a                	mv	a4,a0
    d302:	fd843783          	ld	a5,-40(s0)
    d306:	97ba                	add	a5,a5,a4
    d308:	a021                	j	d310 <t_randint+0x40>
	return rand64();
    d30a:	e2dff0ef          	jal	ra,d136 <rand64>
    d30e:	87aa                	mv	a5,a0
}
    d310:	853e                	mv	a0,a5
    d312:	70a2                	ld	ra,40(sp)
    d314:	7402                	ld	s0,32(sp)
    d316:	6145                	addi	sp,sp,48
    d318:	8082                	ret

000000000000d31a <shuffle2>:

/* shuffle the elements of p and q until the elements in p are well shuffled */
static void shuffle2(uint64_t *p, uint64_t *q, size_t np, size_t nq)
{
    d31a:	7139                	addi	sp,sp,-64
    d31c:	fc06                	sd	ra,56(sp)
    d31e:	f822                	sd	s0,48(sp)
    d320:	0080                	addi	s0,sp,64
    d322:	fca43c23          	sd	a0,-40(s0)
    d326:	fcb43823          	sd	a1,-48(s0)
    d32a:	fcc43423          	sd	a2,-56(s0)
    d32e:	fcd43023          	sd	a3,-64(s0)
	size_t r;
	uint64_t t;

	while (np) {
    d332:	a06d                	j	d3dc <shuffle2+0xc2>
		r = t_randn(nq+np--);
    d334:	fc843783          	ld	a5,-56(s0)
    d338:	fff78713          	addi	a4,a5,-1
    d33c:	fce43423          	sd	a4,-56(s0)
    d340:	fc043703          	ld	a4,-64(s0)
    d344:	97ba                	add	a5,a5,a4
    d346:	853e                	mv	a0,a5
    d348:	f33ff0ef          	jal	ra,d27a <t_randn>
    d34c:	fea43023          	sd	a0,-32(s0)
		t = p[np];
    d350:	fc843783          	ld	a5,-56(s0)
    d354:	078e                	slli	a5,a5,0x3
    d356:	fd843703          	ld	a4,-40(s0)
    d35a:	97ba                	add	a5,a5,a4
    d35c:	639c                	ld	a5,0(a5)
    d35e:	fef43423          	sd	a5,-24(s0)
		if (r < nq) {
    d362:	fe043703          	ld	a4,-32(s0)
    d366:	fc043783          	ld	a5,-64(s0)
    d36a:	02f77a63          	bgeu	a4,a5,d39e <shuffle2+0x84>
			p[np] = q[r];
    d36e:	fe043783          	ld	a5,-32(s0)
    d372:	078e                	slli	a5,a5,0x3
    d374:	fd043703          	ld	a4,-48(s0)
    d378:	973e                	add	a4,a4,a5
    d37a:	fc843783          	ld	a5,-56(s0)
    d37e:	078e                	slli	a5,a5,0x3
    d380:	fd843683          	ld	a3,-40(s0)
    d384:	97b6                	add	a5,a5,a3
    d386:	6318                	ld	a4,0(a4)
    d388:	e398                	sd	a4,0(a5)
			q[r] = t;
    d38a:	fe043783          	ld	a5,-32(s0)
    d38e:	078e                	slli	a5,a5,0x3
    d390:	fd043703          	ld	a4,-48(s0)
    d394:	97ba                	add	a5,a5,a4
    d396:	fe843703          	ld	a4,-24(s0)
    d39a:	e398                	sd	a4,0(a5)
    d39c:	a081                	j	d3dc <shuffle2+0xc2>
		} else {
			p[np] = p[r-nq];
    d39e:	fe043703          	ld	a4,-32(s0)
    d3a2:	fc043783          	ld	a5,-64(s0)
    d3a6:	40f707b3          	sub	a5,a4,a5
    d3aa:	078e                	slli	a5,a5,0x3
    d3ac:	fd843703          	ld	a4,-40(s0)
    d3b0:	973e                	add	a4,a4,a5
    d3b2:	fc843783          	ld	a5,-56(s0)
    d3b6:	078e                	slli	a5,a5,0x3
    d3b8:	fd843683          	ld	a3,-40(s0)
    d3bc:	97b6                	add	a5,a5,a3
    d3be:	6318                	ld	a4,0(a4)
    d3c0:	e398                	sd	a4,0(a5)
			p[r-nq] = t;
    d3c2:	fe043703          	ld	a4,-32(s0)
    d3c6:	fc043783          	ld	a5,-64(s0)
    d3ca:	40f707b3          	sub	a5,a4,a5
    d3ce:	078e                	slli	a5,a5,0x3
    d3d0:	fd843703          	ld	a4,-40(s0)
    d3d4:	97ba                	add	a5,a5,a4
    d3d6:	fe843703          	ld	a4,-24(s0)
    d3da:	e398                	sd	a4,0(a5)
	while (np) {
    d3dc:	fc843783          	ld	a5,-56(s0)
    d3e0:	fbb1                	bnez	a5,d334 <shuffle2+0x1a>
		}
	}
}
    d3e2:	0001                	nop
    d3e4:	0001                	nop
    d3e6:	70e2                	ld	ra,56(sp)
    d3e8:	7442                	ld	s0,48(sp)
    d3ea:	6121                	addi	sp,sp,64
    d3ec:	8082                	ret

000000000000d3ee <t_shuffle>:

/* shuffle the elements of p */
void t_shuffle(uint64_t *p, size_t n)
{
    d3ee:	1101                	addi	sp,sp,-32
    d3f0:	ec06                	sd	ra,24(sp)
    d3f2:	e822                	sd	s0,16(sp)
    d3f4:	1000                	addi	s0,sp,32
    d3f6:	fea43423          	sd	a0,-24(s0)
    d3fa:	feb43023          	sd	a1,-32(s0)
	shuffle2(p,0,n,0);
    d3fe:	4681                	li	a3,0
    d400:	fe043603          	ld	a2,-32(s0)
    d404:	4581                	li	a1,0
    d406:	fe843503          	ld	a0,-24(s0)
    d40a:	f11ff0ef          	jal	ra,d31a <shuffle2>
}
    d40e:	0001                	nop
    d410:	60e2                	ld	ra,24(sp)
    d412:	6442                	ld	s0,16(sp)
    d414:	6105                	addi	sp,sp,32
    d416:	8082                	ret

000000000000d418 <t_randrange>:

void t_randrange(uint64_t *p, size_t n)
{
    d418:	7179                	addi	sp,sp,-48
    d41a:	f406                	sd	ra,40(sp)
    d41c:	f022                	sd	s0,32(sp)
    d41e:	1800                	addi	s0,sp,48
    d420:	fca43c23          	sd	a0,-40(s0)
    d424:	fcb43823          	sd	a1,-48(s0)
	size_t i;
	for (i = 0; i < n; i++)
    d428:	fe043423          	sd	zero,-24(s0)
    d42c:	a839                	j	d44a <t_randrange+0x32>
		p[i] = i;
    d42e:	fe843783          	ld	a5,-24(s0)
    d432:	078e                	slli	a5,a5,0x3
    d434:	fd843703          	ld	a4,-40(s0)
    d438:	97ba                	add	a5,a5,a4
    d43a:	fe843703          	ld	a4,-24(s0)
    d43e:	e398                	sd	a4,0(a5)
	for (i = 0; i < n; i++)
    d440:	fe843783          	ld	a5,-24(s0)
    d444:	0785                	addi	a5,a5,1
    d446:	fef43423          	sd	a5,-24(s0)
    d44a:	fe843703          	ld	a4,-24(s0)
    d44e:	fd043783          	ld	a5,-48(s0)
    d452:	fcf76ee3          	bltu	a4,a5,d42e <t_randrange+0x16>
	t_shuffle(p, n);
    d456:	fd043583          	ld	a1,-48(s0)
    d45a:	fd843503          	ld	a0,-40(s0)
    d45e:	f91ff0ef          	jal	ra,d3ee <t_shuffle>
}
    d462:	0001                	nop
    d464:	70a2                	ld	ra,40(sp)
    d466:	7402                	ld	s0,32(sp)
    d468:	6145                	addi	sp,sp,48
    d46a:	8082                	ret

000000000000d46c <insert>:

/* hash table insert, 0 means empty, v > 0 must hold, len is power-of-2 */
static int insert(uint64_t *tab, size_t len, uint64_t v)
{
    d46c:	7139                	addi	sp,sp,-64
    d46e:	fc22                	sd	s0,56(sp)
    d470:	0080                	addi	s0,sp,64
    d472:	fca43c23          	sd	a0,-40(s0)
    d476:	fcb43823          	sd	a1,-48(s0)
    d47a:	fcc43423          	sd	a2,-56(s0)
	size_t i = v & (len-1);
    d47e:	fd043783          	ld	a5,-48(s0)
    d482:	17fd                	addi	a5,a5,-1
    d484:	fc843703          	ld	a4,-56(s0)
    d488:	8ff9                	and	a5,a5,a4
    d48a:	fef43023          	sd	a5,-32(s0)
	size_t j = 1;
    d48e:	4785                	li	a5,1
    d490:	fef43423          	sd	a5,-24(s0)

	while (tab[i]) {
    d494:	a089                	j	d4d6 <insert+0x6a>
		if (tab[i] == v)
    d496:	fe043783          	ld	a5,-32(s0)
    d49a:	078e                	slli	a5,a5,0x3
    d49c:	fd843703          	ld	a4,-40(s0)
    d4a0:	97ba                	add	a5,a5,a4
    d4a2:	639c                	ld	a5,0(a5)
    d4a4:	fc843703          	ld	a4,-56(s0)
    d4a8:	00f71463          	bne	a4,a5,d4b0 <insert+0x44>
			return -1;
    d4ac:	57fd                	li	a5,-1
    d4ae:	a0b1                	j	d4fa <insert+0x8e>
		i += j++;
    d4b0:	fe843783          	ld	a5,-24(s0)
    d4b4:	00178713          	addi	a4,a5,1
    d4b8:	fee43423          	sd	a4,-24(s0)
    d4bc:	fe043703          	ld	a4,-32(s0)
    d4c0:	97ba                	add	a5,a5,a4
    d4c2:	fef43023          	sd	a5,-32(s0)
		i &= len-1;
    d4c6:	fd043783          	ld	a5,-48(s0)
    d4ca:	17fd                	addi	a5,a5,-1
    d4cc:	fe043703          	ld	a4,-32(s0)
    d4d0:	8ff9                	and	a5,a5,a4
    d4d2:	fef43023          	sd	a5,-32(s0)
	while (tab[i]) {
    d4d6:	fe043783          	ld	a5,-32(s0)
    d4da:	078e                	slli	a5,a5,0x3
    d4dc:	fd843703          	ld	a4,-40(s0)
    d4e0:	97ba                	add	a5,a5,a4
    d4e2:	639c                	ld	a5,0(a5)
    d4e4:	fbcd                	bnez	a5,d496 <insert+0x2a>
	}
	tab[i] = v;
    d4e6:	fe043783          	ld	a5,-32(s0)
    d4ea:	078e                	slli	a5,a5,0x3
    d4ec:	fd843703          	ld	a4,-40(s0)
    d4f0:	97ba                	add	a5,a5,a4
    d4f2:	fc843703          	ld	a4,-56(s0)
    d4f6:	e398                	sd	a4,0(a5)
	return 0;
    d4f8:	4781                	li	a5,0
}
    d4fa:	853e                	mv	a0,a5
    d4fc:	7462                	ld	s0,56(sp)
    d4fe:	6121                	addi	sp,sp,64
    d500:	8082                	ret

000000000000d502 <t_choose>:

/* choose k unique numbers from [0,n), k <= n */
int t_choose(uint64_t n, size_t k, uint64_t *p)
{
    d502:	711d                	addi	sp,sp,-96
    d504:	ec86                	sd	ra,88(sp)
    d506:	e8a2                	sd	s0,80(sp)
    d508:	e4a6                	sd	s1,72(sp)
    d50a:	1080                	addi	s0,sp,96
    d50c:	faa43c23          	sd	a0,-72(s0)
    d510:	fab43823          	sd	a1,-80(s0)
    d514:	fac43423          	sd	a2,-88(s0)
	uint64_t *tab;
	size_t i, j, len;

	if (n < k)
    d518:	fb843703          	ld	a4,-72(s0)
    d51c:	fb043783          	ld	a5,-80(s0)
    d520:	00f77463          	bgeu	a4,a5,d528 <t_choose+0x26>
		return -1;
    d524:	57fd                	li	a5,-1
    d526:	a445                	j	d7c6 <t_choose+0x2c4>

	if (n < 16) {
    d528:	fb843703          	ld	a4,-72(s0)
    d52c:	47bd                	li	a5,15
    d52e:	04e7e463          	bltu	a5,a4,d576 <t_choose+0x74>
		/* no alloc */
		while (k)
    d532:	a82d                	j	d56c <t_choose+0x6a>
			if (t_randn(n--) < k)
    d534:	fb843783          	ld	a5,-72(s0)
    d538:	fff78713          	addi	a4,a5,-1
    d53c:	fae43c23          	sd	a4,-72(s0)
    d540:	853e                	mv	a0,a5
    d542:	d39ff0ef          	jal	ra,d27a <t_randn>
    d546:	872a                	mv	a4,a0
    d548:	fb043783          	ld	a5,-80(s0)
    d54c:	02f77063          	bgeu	a4,a5,d56c <t_choose+0x6a>
				p[--k] = n;
    d550:	fb043783          	ld	a5,-80(s0)
    d554:	17fd                	addi	a5,a5,-1
    d556:	faf43823          	sd	a5,-80(s0)
    d55a:	fb043783          	ld	a5,-80(s0)
    d55e:	078e                	slli	a5,a5,0x3
    d560:	fa843703          	ld	a4,-88(s0)
    d564:	97ba                	add	a5,a5,a4
    d566:	fb843703          	ld	a4,-72(s0)
    d56a:	e398                	sd	a4,0(a5)
		while (k)
    d56c:	fb043783          	ld	a5,-80(s0)
    d570:	f3f1                	bnez	a5,d534 <t_choose+0x32>
		return 0;
    d572:	4781                	li	a5,0
    d574:	ac89                	j	d7c6 <t_choose+0x2c4>
	}

	if (k < 8) {
    d576:	fb043703          	ld	a4,-80(s0)
    d57a:	479d                	li	a5,7
    d57c:	06e7ed63          	bltu	a5,a4,d5f6 <t_choose+0xf4>
		/* no alloc, n > 15 > 2*k */
		for (i = 0; i < k;) {
    d580:	fc043023          	sd	zero,-64(s0)
    d584:	a08d                	j	d5e6 <t_choose+0xe4>
			p[i] = t_randn(n);
    d586:	fc043783          	ld	a5,-64(s0)
    d58a:	078e                	slli	a5,a5,0x3
    d58c:	fa843703          	ld	a4,-88(s0)
    d590:	00f704b3          	add	s1,a4,a5
    d594:	fb843503          	ld	a0,-72(s0)
    d598:	ce3ff0ef          	jal	ra,d27a <t_randn>
    d59c:	87aa                	mv	a5,a0
    d59e:	e09c                	sd	a5,0(s1)
			for (j = 0; p[j] != p[i]; j++);
    d5a0:	fc043423          	sd	zero,-56(s0)
    d5a4:	a031                	j	d5b0 <t_choose+0xae>
    d5a6:	fc843783          	ld	a5,-56(s0)
    d5aa:	0785                	addi	a5,a5,1
    d5ac:	fcf43423          	sd	a5,-56(s0)
    d5b0:	fc843783          	ld	a5,-56(s0)
    d5b4:	078e                	slli	a5,a5,0x3
    d5b6:	fa843703          	ld	a4,-88(s0)
    d5ba:	97ba                	add	a5,a5,a4
    d5bc:	6398                	ld	a4,0(a5)
    d5be:	fc043783          	ld	a5,-64(s0)
    d5c2:	078e                	slli	a5,a5,0x3
    d5c4:	fa843683          	ld	a3,-88(s0)
    d5c8:	97b6                	add	a5,a5,a3
    d5ca:	639c                	ld	a5,0(a5)
    d5cc:	fcf71de3          	bne	a4,a5,d5a6 <t_choose+0xa4>
			if (j == i)
    d5d0:	fc843703          	ld	a4,-56(s0)
    d5d4:	fc043783          	ld	a5,-64(s0)
    d5d8:	00f71763          	bne	a4,a5,d5e6 <t_choose+0xe4>
				i++;
    d5dc:	fc043783          	ld	a5,-64(s0)
    d5e0:	0785                	addi	a5,a5,1
    d5e2:	fcf43023          	sd	a5,-64(s0)
		for (i = 0; i < k;) {
    d5e6:	fc043703          	ld	a4,-64(s0)
    d5ea:	fb043783          	ld	a5,-80(s0)
    d5ee:	f8f76ce3          	bltu	a4,a5,d586 <t_choose+0x84>
		}
		return 0;
    d5f2:	4781                	li	a5,0
    d5f4:	aac9                	j	d7c6 <t_choose+0x2c4>
	}

	// TODO: if k < n/k use k*log(k) solution without alloc

	if (n < 5*k && (n-k)*sizeof *tab < (size_t)-1) {
    d5f6:	fb043703          	ld	a4,-80(s0)
    d5fa:	87ba                	mv	a5,a4
    d5fc:	078a                	slli	a5,a5,0x2
    d5fe:	97ba                	add	a5,a5,a4
    d600:	fb843703          	ld	a4,-72(s0)
    d604:	0ef77d63          	bgeu	a4,a5,d6fe <t_choose+0x1fc>
    d608:	fb843703          	ld	a4,-72(s0)
    d60c:	fb043783          	ld	a5,-80(s0)
    d610:	40f707b3          	sub	a5,a4,a5
    d614:	00379713          	slli	a4,a5,0x3
    d618:	57fd                	li	a5,-1
    d61a:	0ef70263          	beq	a4,a5,d6fe <t_choose+0x1fc>
		/* allocation is n-k < 4*k */
		tab = malloc((n-k) * sizeof *tab);
    d61e:	fb843703          	ld	a4,-72(s0)
    d622:	fb043783          	ld	a5,-80(s0)
    d626:	40f707b3          	sub	a5,a4,a5
    d62a:	078e                	slli	a5,a5,0x3
    d62c:	853e                	mv	a0,a5
    d62e:	ab2fe0ef          	jal	ra,b8e0 <malloc@plt>
    d632:	fca43c23          	sd	a0,-40(s0)
		if (!tab)
    d636:	fd843783          	ld	a5,-40(s0)
    d63a:	e399                	bnez	a5,d640 <t_choose+0x13e>
			return -1;
    d63c:	57fd                	li	a5,-1
    d63e:	a261                	j	d7c6 <t_choose+0x2c4>
		for (i = 0; i < k; i++)
    d640:	fc043023          	sd	zero,-64(s0)
    d644:	a839                	j	d662 <t_choose+0x160>
			p[i] = i;
    d646:	fc043783          	ld	a5,-64(s0)
    d64a:	078e                	slli	a5,a5,0x3
    d64c:	fa843703          	ld	a4,-88(s0)
    d650:	97ba                	add	a5,a5,a4
    d652:	fc043703          	ld	a4,-64(s0)
    d656:	e398                	sd	a4,0(a5)
		for (i = 0; i < k; i++)
    d658:	fc043783          	ld	a5,-64(s0)
    d65c:	0785                	addi	a5,a5,1
    d65e:	fcf43023          	sd	a5,-64(s0)
    d662:	fc043703          	ld	a4,-64(s0)
    d666:	fb043783          	ld	a5,-80(s0)
    d66a:	fcf76ee3          	bltu	a4,a5,d646 <t_choose+0x144>
		for (; i < n; i++)
    d66e:	a01d                	j	d694 <t_choose+0x192>
			tab[i-k] = i;
    d670:	fc043703          	ld	a4,-64(s0)
    d674:	fb043783          	ld	a5,-80(s0)
    d678:	40f707b3          	sub	a5,a4,a5
    d67c:	078e                	slli	a5,a5,0x3
    d67e:	fd843703          	ld	a4,-40(s0)
    d682:	97ba                	add	a5,a5,a4
    d684:	fc043703          	ld	a4,-64(s0)
    d688:	e398                	sd	a4,0(a5)
		for (; i < n; i++)
    d68a:	fc043783          	ld	a5,-64(s0)
    d68e:	0785                	addi	a5,a5,1
    d690:	fcf43023          	sd	a5,-64(s0)
    d694:	fc043703          	ld	a4,-64(s0)
    d698:	fb843783          	ld	a5,-72(s0)
    d69c:	fcf76ae3          	bltu	a4,a5,d670 <t_choose+0x16e>
		if (k < n-k)
    d6a0:	fb843703          	ld	a4,-72(s0)
    d6a4:	fb043783          	ld	a5,-80(s0)
    d6a8:	40f707b3          	sub	a5,a4,a5
    d6ac:	fb043703          	ld	a4,-80(s0)
    d6b0:	02f77263          	bgeu	a4,a5,d6d4 <t_choose+0x1d2>
			shuffle2(p, tab, k, n-k);
    d6b4:	fb843703          	ld	a4,-72(s0)
    d6b8:	fb043783          	ld	a5,-80(s0)
    d6bc:	40f707b3          	sub	a5,a4,a5
    d6c0:	86be                	mv	a3,a5
    d6c2:	fb043603          	ld	a2,-80(s0)
    d6c6:	fd843583          	ld	a1,-40(s0)
    d6ca:	fa843503          	ld	a0,-88(s0)
    d6ce:	c4dff0ef          	jal	ra,d31a <shuffle2>
    d6d2:	a005                	j	d6f2 <t_choose+0x1f0>
		else
			shuffle2(tab, p, n-k, k);
    d6d4:	fb843703          	ld	a4,-72(s0)
    d6d8:	fb043783          	ld	a5,-80(s0)
    d6dc:	40f707b3          	sub	a5,a4,a5
    d6e0:	fb043683          	ld	a3,-80(s0)
    d6e4:	863e                	mv	a2,a5
    d6e6:	fa843583          	ld	a1,-88(s0)
    d6ea:	fd843503          	ld	a0,-40(s0)
    d6ee:	c2dff0ef          	jal	ra,d31a <shuffle2>
		free(tab);
    d6f2:	fd843503          	ld	a0,-40(s0)
    d6f6:	debfe0ef          	jal	ra,c4e0 <free@plt>
		return 0;
    d6fa:	4781                	li	a5,0
    d6fc:	a0e9                	j	d7c6 <t_choose+0x2c4>
	}

	/* allocation is 2*k <= len < 4*k */
	for (len = 16; len < 2*k; len *= 2);
    d6fe:	47c1                	li	a5,16
    d700:	fcf43823          	sd	a5,-48(s0)
    d704:	a031                	j	d710 <t_choose+0x20e>
    d706:	fd043783          	ld	a5,-48(s0)
    d70a:	0786                	slli	a5,a5,0x1
    d70c:	fcf43823          	sd	a5,-48(s0)
    d710:	fb043783          	ld	a5,-80(s0)
    d714:	0786                	slli	a5,a5,0x1
    d716:	fd043703          	ld	a4,-48(s0)
    d71a:	fef766e3          	bltu	a4,a5,d706 <t_choose+0x204>
	tab = calloc(len, sizeof *tab);
    d71e:	45a1                	li	a1,8
    d720:	fd043503          	ld	a0,-48(s0)
    d724:	c1cfe0ef          	jal	ra,bb40 <calloc@plt>
    d728:	fca43c23          	sd	a0,-40(s0)
	if (!tab)
    d72c:	fd843783          	ld	a5,-40(s0)
    d730:	e399                	bnez	a5,d736 <t_choose+0x234>
		return -1;
    d732:	57fd                	li	a5,-1
    d734:	a849                	j	d7c6 <t_choose+0x2c4>
	for (i = 0; i < k; i++)
    d736:	fc043023          	sd	zero,-64(s0)
    d73a:	a035                	j	d766 <t_choose+0x264>
		while (insert(tab, len, t_randn(n)+1));
    d73c:	0001                	nop
    d73e:	fb843503          	ld	a0,-72(s0)
    d742:	b39ff0ef          	jal	ra,d27a <t_randn>
    d746:	87aa                	mv	a5,a0
    d748:	0785                	addi	a5,a5,1
    d74a:	863e                	mv	a2,a5
    d74c:	fd043583          	ld	a1,-48(s0)
    d750:	fd843503          	ld	a0,-40(s0)
    d754:	d19ff0ef          	jal	ra,d46c <insert>
    d758:	87aa                	mv	a5,a0
    d75a:	f3f5                	bnez	a5,d73e <t_choose+0x23c>
	for (i = 0; i < k; i++)
    d75c:	fc043783          	ld	a5,-64(s0)
    d760:	0785                	addi	a5,a5,1
    d762:	fcf43023          	sd	a5,-64(s0)
    d766:	fc043703          	ld	a4,-64(s0)
    d76a:	fb043783          	ld	a5,-80(s0)
    d76e:	fcf767e3          	bltu	a4,a5,d73c <t_choose+0x23a>
	for (i = 0; i < len; i++)
    d772:	fc043023          	sd	zero,-64(s0)
    d776:	a82d                	j	d7b0 <t_choose+0x2ae>
		if (tab[i])
    d778:	fc043783          	ld	a5,-64(s0)
    d77c:	078e                	slli	a5,a5,0x3
    d77e:	fd843703          	ld	a4,-40(s0)
    d782:	97ba                	add	a5,a5,a4
    d784:	639c                	ld	a5,0(a5)
    d786:	c385                	beqz	a5,d7a6 <t_choose+0x2a4>
			*p++ = tab[i]-1;
    d788:	fc043783          	ld	a5,-64(s0)
    d78c:	078e                	slli	a5,a5,0x3
    d78e:	fd843703          	ld	a4,-40(s0)
    d792:	97ba                	add	a5,a5,a4
    d794:	6398                	ld	a4,0(a5)
    d796:	fa843783          	ld	a5,-88(s0)
    d79a:	00878693          	addi	a3,a5,8
    d79e:	fad43423          	sd	a3,-88(s0)
    d7a2:	177d                	addi	a4,a4,-1
    d7a4:	e398                	sd	a4,0(a5)
	for (i = 0; i < len; i++)
    d7a6:	fc043783          	ld	a5,-64(s0)
    d7aa:	0785                	addi	a5,a5,1
    d7ac:	fcf43023          	sd	a5,-64(s0)
    d7b0:	fc043703          	ld	a4,-64(s0)
    d7b4:	fd043783          	ld	a5,-48(s0)
    d7b8:	fcf760e3          	bltu	a4,a5,d778 <t_choose+0x276>
	free(tab);
    d7bc:	fd843503          	ld	a0,-40(s0)
    d7c0:	d21fe0ef          	jal	ra,c4e0 <free@plt>
	return 0;
    d7c4:	4781                	li	a5,0
}
    d7c6:	853e                	mv	a0,a5
    d7c8:	60e6                	ld	ra,88(sp)
    d7ca:	6446                	ld	s0,80(sp)
    d7cc:	64a6                	ld	s1,72(sp)
    d7ce:	6125                	addi	sp,sp,96
    d7d0:	8082                	ret

000000000000d7d2 <t_setrlim>:
#include <errno.h>
#include <sys/resource.h>
#include "test.h"

int t_setrlim(int r, long lim)
{
    d7d2:	7139                	addi	sp,sp,-64
    d7d4:	fc06                	sd	ra,56(sp)
    d7d6:	f822                	sd	s0,48(sp)
    d7d8:	0080                	addi	s0,sp,64
    d7da:	87aa                	mv	a5,a0
    d7dc:	fcb43023          	sd	a1,-64(s0)
    d7e0:	fcf42623          	sw	a5,-52(s0)
    d7e4:	00051797          	auipc	a5,0x51
    d7e8:	87c7b783          	ld	a5,-1924(a5) # 5e060 <__stack_chk_guard>
    d7ec:	6398                	ld	a4,0(a5)
    d7ee:	fee43423          	sd	a4,-24(s0)
    d7f2:	4701                	li	a4,0
	struct rlimit rl;

	if (getrlimit(r, &rl)) {
    d7f4:	fd840713          	addi	a4,s0,-40
    d7f8:	fcc42783          	lw	a5,-52(s0)
    d7fc:	85ba                	mv	a1,a4
    d7fe:	853e                	mv	a0,a5
    d800:	d51fd0ef          	jal	ra,b550 <getrlimit@plt>
    d804:	87aa                	mv	a5,a0
    d806:	c78d                	beqz	a5,d830 <t_setrlim+0x5e>
		t_error("getrlimit %d: %s\n", r, strerror(errno));
    d808:	af9fe0ef          	jal	ra,c300 <__errno_location@plt>
    d80c:	87aa                	mv	a5,a0
    d80e:	439c                	lw	a5,0(a5)
    d810:	853e                	mv	a0,a5
    d812:	deffd0ef          	jal	ra,b600 <strerror@plt>
    d816:	872a                	mv	a4,a0
    d818:	fcc42783          	lw	a5,-52(s0)
    d81c:	863a                	mv	a2,a4
    d81e:	85be                	mv	a1,a5
    d820:	00023517          	auipc	a0,0x23
    d824:	2b050513          	addi	a0,a0,688 # 30ad0 <__clzdi2+0x8b8>
    d828:	fa6ff0ef          	jal	ra,cfce <t_printf>
		return -1;
    d82c:	57fd                	li	a5,-1
    d82e:	a041                	j	d8ae <t_setrlim+0xdc>
	}
	if (lim > rl.rlim_max)
    d830:	fe043703          	ld	a4,-32(s0)
    d834:	fc043783          	ld	a5,-64(s0)
    d838:	00f77463          	bgeu	a4,a5,d840 <t_setrlim+0x6e>
		return -1;
    d83c:	57fd                	li	a5,-1
    d83e:	a885                	j	d8ae <t_setrlim+0xdc>
	if (lim == rl.rlim_max && lim == rl.rlim_cur)
    d840:	fe043703          	ld	a4,-32(s0)
    d844:	fc043783          	ld	a5,-64(s0)
    d848:	00f71a63          	bne	a4,a5,d85c <t_setrlim+0x8a>
    d84c:	fd843703          	ld	a4,-40(s0)
    d850:	fc043783          	ld	a5,-64(s0)
    d854:	00f71463          	bne	a4,a5,d85c <t_setrlim+0x8a>
		return 0;
    d858:	4781                	li	a5,0
    d85a:	a891                	j	d8ae <t_setrlim+0xdc>
	rl.rlim_max = lim;
    d85c:	fc043783          	ld	a5,-64(s0)
    d860:	fef43023          	sd	a5,-32(s0)
	rl.rlim_cur = lim;
    d864:	fc043783          	ld	a5,-64(s0)
    d868:	fcf43c23          	sd	a5,-40(s0)
	if (setrlimit(r, &rl)) {
    d86c:	fd840713          	addi	a4,s0,-40
    d870:	fcc42783          	lw	a5,-52(s0)
    d874:	85ba                	mv	a1,a4
    d876:	853e                	mv	a0,a5
    d878:	ad8fe0ef          	jal	ra,bb50 <setrlimit@plt>
    d87c:	87aa                	mv	a5,a0
    d87e:	c79d                	beqz	a5,d8ac <t_setrlim+0xda>
		t_error("setrlimit(%d, %ld): %s\n", r, lim, strerror(errno));
    d880:	a81fe0ef          	jal	ra,c300 <__errno_location@plt>
    d884:	87aa                	mv	a5,a0
    d886:	439c                	lw	a5,0(a5)
    d888:	853e                	mv	a0,a5
    d88a:	d77fd0ef          	jal	ra,b600 <strerror@plt>
    d88e:	872a                	mv	a4,a0
    d890:	fcc42783          	lw	a5,-52(s0)
    d894:	86ba                	mv	a3,a4
    d896:	fc043603          	ld	a2,-64(s0)
    d89a:	85be                	mv	a1,a5
    d89c:	00023517          	auipc	a0,0x23
    d8a0:	26450513          	addi	a0,a0,612 # 30b00 <__clzdi2+0x8e8>
    d8a4:	f2aff0ef          	jal	ra,cfce <t_printf>
		return -1;
    d8a8:	57fd                	li	a5,-1
    d8aa:	a011                	j	d8ae <t_setrlim+0xdc>
	}
	return 0;
    d8ac:	4781                	li	a5,0
}
    d8ae:	873e                	mv	a4,a5
    d8b0:	00050797          	auipc	a5,0x50
    d8b4:	7b07b783          	ld	a5,1968(a5) # 5e060 <__stack_chk_guard>
    d8b8:	fe843683          	ld	a3,-24(s0)
    d8bc:	639c                	ld	a5,0(a5)
    d8be:	8fb5                	xor	a5,a5,a3
    d8c0:	4681                	li	a3,0
    d8c2:	c399                	beqz	a5,d8c8 <t_setrlim+0xf6>
    d8c4:	9bcfe0ef          	jal	ra,ba80 <__stack_chk_fail@plt>
    d8c8:	853a                	mv	a0,a4
    d8ca:	70e2                	ld	ra,56(sp)
    d8cc:	7442                	ld	s0,48(sp)
    d8ce:	6121                	addi	sp,sp,64
    d8d0:	8082                	ret

000000000000d8d2 <t_setutf8>:
#include <string.h>
#include <langinfo.h>
#include "test.h"

int t_setutf8()
{
    d8d2:	1141                	addi	sp,sp,-16
    d8d4:	e406                	sd	ra,8(sp)
    d8d6:	e022                	sd	s0,0(sp)
    d8d8:	0800                	addi	s0,sp,16
	(void)(
	setlocale(LC_CTYPE, "C.UTF-8") ||
    d8da:	00023597          	auipc	a1,0x23
    d8de:	25e58593          	addi	a1,a1,606 # 30b38 <__clzdi2+0x920>
    d8e2:	4501                	li	a0,0
    d8e4:	84dfe0ef          	jal	ra,c130 <setlocale@plt>
    d8e8:	87aa                	mv	a5,a0
	(void)(
    d8ea:	e7ad                	bnez	a5,d954 <t_setutf8+0x82>
	setlocale(LC_CTYPE, "POSIX.UTF-8") ||
    d8ec:	00023597          	auipc	a1,0x23
    d8f0:	25458593          	addi	a1,a1,596 # 30b40 <__clzdi2+0x928>
    d8f4:	4501                	li	a0,0
    d8f6:	83bfe0ef          	jal	ra,c130 <setlocale@plt>
    d8fa:	87aa                	mv	a5,a0
	setlocale(LC_CTYPE, "C.UTF-8") ||
    d8fc:	efa1                	bnez	a5,d954 <t_setutf8+0x82>
	setlocale(LC_CTYPE, "en_US.UTF-8") ||
    d8fe:	00023597          	auipc	a1,0x23
    d902:	25258593          	addi	a1,a1,594 # 30b50 <__clzdi2+0x938>
    d906:	4501                	li	a0,0
    d908:	829fe0ef          	jal	ra,c130 <setlocale@plt>
    d90c:	87aa                	mv	a5,a0
	setlocale(LC_CTYPE, "POSIX.UTF-8") ||
    d90e:	e3b9                	bnez	a5,d954 <t_setutf8+0x82>
	setlocale(LC_CTYPE, "en_GB.UTF-8") ||
    d910:	00023597          	auipc	a1,0x23
    d914:	25058593          	addi	a1,a1,592 # 30b60 <__clzdi2+0x948>
    d918:	4501                	li	a0,0
    d91a:	817fe0ef          	jal	ra,c130 <setlocale@plt>
    d91e:	87aa                	mv	a5,a0
	setlocale(LC_CTYPE, "en_US.UTF-8") ||
    d920:	eb95                	bnez	a5,d954 <t_setutf8+0x82>
	setlocale(LC_CTYPE, "en.UTF-8") ||
    d922:	00023597          	auipc	a1,0x23
    d926:	24e58593          	addi	a1,a1,590 # 30b70 <__clzdi2+0x958>
    d92a:	4501                	li	a0,0
    d92c:	805fe0ef          	jal	ra,c130 <setlocale@plt>
    d930:	87aa                	mv	a5,a0
	setlocale(LC_CTYPE, "en_GB.UTF-8") ||
    d932:	e38d                	bnez	a5,d954 <t_setutf8+0x82>
	setlocale(LC_CTYPE, "UTF-8") ||
    d934:	00023597          	auipc	a1,0x23
    d938:	24c58593          	addi	a1,a1,588 # 30b80 <__clzdi2+0x968>
    d93c:	4501                	li	a0,0
    d93e:	ff2fe0ef          	jal	ra,c130 <setlocale@plt>
    d942:	87aa                	mv	a5,a0
	setlocale(LC_CTYPE, "en.UTF-8") ||
    d944:	eb81                	bnez	a5,d954 <t_setutf8+0x82>
	setlocale(LC_CTYPE, "") );
    d946:	00023597          	auipc	a1,0x23
    d94a:	24258593          	addi	a1,a1,578 # 30b88 <__clzdi2+0x970>
    d94e:	4501                	li	a0,0
    d950:	fe0fe0ef          	jal	ra,c130 <setlocale@plt>
	(void)(
    d954:	0001                	nop
	
	if (strcmp(nl_langinfo(CODESET), "UTF-8"))
    d956:	4539                	li	a0,14
    d958:	b18fe0ef          	jal	ra,bc70 <nl_langinfo@plt>
    d95c:	87aa                	mv	a5,a0
    d95e:	00023597          	auipc	a1,0x23
    d962:	22258593          	addi	a1,a1,546 # 30b80 <__clzdi2+0x968>
    d966:	853e                	mv	a0,a5
    d968:	ef8fe0ef          	jal	ra,c060 <strcmp@plt>
    d96c:	87aa                	mv	a5,a0
    d96e:	cf91                	beqz	a5,d98a <t_setutf8+0xb8>
		return t_error("cannot set UTF-8 locale for test (codeset=%s)\n", nl_langinfo(CODESET));
    d970:	4539                	li	a0,14
    d972:	afefe0ef          	jal	ra,bc70 <nl_langinfo@plt>
    d976:	87aa                	mv	a5,a0
    d978:	85be                	mv	a1,a5
    d97a:	00023517          	auipc	a0,0x23
    d97e:	21650513          	addi	a0,a0,534 # 30b90 <__clzdi2+0x978>
    d982:	e4cff0ef          	jal	ra,cfce <t_printf>
    d986:	87aa                	mv	a5,a0
    d988:	a011                	j	d98c <t_setutf8+0xba>

	return 0;
    d98a:	4781                	li	a5,0
}
    d98c:	853e                	mv	a0,a5
    d98e:	60a2                	ld	ra,8(sp)
    d990:	6402                	ld	s0,0(sp)
    d992:	0141                	addi	sp,sp,16
    d994:	8082                	ret

000000000000d996 <mmax>:
	#define MAP_ANONYMOUS 0
#endif

/* max mmap size, *start is the largest power-of-2 size considered */
static size_t mmax(int fd, size_t *start)
{
    d996:	7139                	addi	sp,sp,-64
    d998:	fc06                	sd	ra,56(sp)
    d99a:	f822                	sd	s0,48(sp)
    d99c:	0080                	addi	s0,sp,64
    d99e:	87aa                	mv	a5,a0
    d9a0:	fcb43023          	sd	a1,-64(s0)
    d9a4:	fcf42623          	sw	a5,-52(s0)
	size_t i, n;
	void *p;

	for (i=n=*start; i>=PAGE_SIZE; i/=2) {
    d9a8:	fc043783          	ld	a5,-64(s0)
    d9ac:	639c                	ld	a5,0(a5)
    d9ae:	fef43023          	sd	a5,-32(s0)
    d9b2:	fe043783          	ld	a5,-32(s0)
    d9b6:	fcf43c23          	sd	a5,-40(s0)
    d9ba:	a89d                	j	da30 <mmax+0x9a>
		if ((p=mmap(0, n, PROT_NONE, MAP_PRIVATE|MAP_ANONYMOUS, fd, 0)) == MAP_FAILED) {
    d9bc:	fcc42703          	lw	a4,-52(s0)
    d9c0:	4781                	li	a5,0
    d9c2:	02200693          	li	a3,34
    d9c6:	4601                	li	a2,0
    d9c8:	fe043583          	ld	a1,-32(s0)
    d9cc:	4501                	li	a0,0
    d9ce:	872fe0ef          	jal	ra,ba40 <mmap@plt>
    d9d2:	fea43423          	sd	a0,-24(s0)
    d9d6:	fe843703          	ld	a4,-24(s0)
    d9da:	57fd                	li	a5,-1
    d9dc:	00f71c63          	bne	a4,a5,d9f4 <mmax+0x5e>
			n -= i/2;
    d9e0:	fd843783          	ld	a5,-40(s0)
    d9e4:	8385                	srli	a5,a5,0x1
    d9e6:	fe043703          	ld	a4,-32(s0)
    d9ea:	40f707b3          	sub	a5,a4,a5
    d9ee:	fef43023          	sd	a5,-32(s0)
    d9f2:	a815                	j	da26 <mmax+0x90>
		} else {
			munmap(p, n);
    d9f4:	fe043583          	ld	a1,-32(s0)
    d9f8:	fe843503          	ld	a0,-24(s0)
    d9fc:	c85fd0ef          	jal	ra,b680 <munmap@plt>
			if (n == i)
    da00:	fe043703          	ld	a4,-32(s0)
    da04:	fd843783          	ld	a5,-40(s0)
    da08:	00f71763          	bne	a4,a5,da16 <mmax+0x80>
				*start = n;
    da0c:	fc043783          	ld	a5,-64(s0)
    da10:	fe043703          	ld	a4,-32(s0)
    da14:	e398                	sd	a4,0(a5)
			n += i/2;
    da16:	fd843783          	ld	a5,-40(s0)
    da1a:	8385                	srli	a5,a5,0x1
    da1c:	fe043703          	ld	a4,-32(s0)
    da20:	97ba                	add	a5,a5,a4
    da22:	fef43023          	sd	a5,-32(s0)
	for (i=n=*start; i>=PAGE_SIZE; i/=2) {
    da26:	fd843783          	ld	a5,-40(s0)
    da2a:	8385                	srli	a5,a5,0x1
    da2c:	fcf43c23          	sd	a5,-40(s0)
    da30:	4579                	li	a0,30
    da32:	b4ffd0ef          	jal	ra,b580 <sysconf@plt>
    da36:	87aa                	mv	a5,a0
    da38:	873e                	mv	a4,a5
    da3a:	fd843783          	ld	a5,-40(s0)
    da3e:	f6e7ffe3          	bgeu	a5,a4,d9bc <mmax+0x26>
		}
	}
	return n & -PAGE_SIZE;
    da42:	4579                	li	a0,30
    da44:	b3dfd0ef          	jal	ra,b580 <sysconf@plt>
    da48:	87aa                	mv	a5,a0
    da4a:	40f007b3          	neg	a5,a5
    da4e:	873e                	mv	a4,a5
    da50:	fe043783          	ld	a5,-32(s0)
    da54:	8ff9                	and	a5,a5,a4
}
    da56:	853e                	mv	a0,a5
    da58:	70e2                	ld	ra,56(sp)
    da5a:	7442                	ld	s0,48(sp)
    da5c:	6121                	addi	sp,sp,64
    da5e:	8082                	ret

000000000000da60 <t_vmfill>:
fills the virtual memory with anonymous PROT_NONE mmaps,
returns the mappings in *p and *n in decreasing size order,
the return value is the number of mappings or -1 on failure.
*/
int t_vmfill(void **p, size_t *n, int len)
{
    da60:	711d                	addi	sp,sp,-96
    da62:	ec86                	sd	ra,88(sp)
    da64:	e8a2                	sd	s0,80(sp)
    da66:	1080                	addi	s0,sp,96
    da68:	faa43c23          	sd	a0,-72(s0)
    da6c:	fab43823          	sd	a1,-80(s0)
    da70:	87b2                	mv	a5,a2
    da72:	faf42623          	sw	a5,-84(s0)
    da76:	00050797          	auipc	a5,0x50
    da7a:	5ea7b783          	ld	a5,1514(a5) # 5e060 <__stack_chk_guard>
    da7e:	6398                	ld	a4,0(a5)
    da80:	fee43423          	sd	a4,-24(s0)
    da84:	4701                	li	a4,0
	int fd = MAP_ANONYMOUS ? -1 : open("/dev/zero", O_RDWR);
    da86:	57fd                	li	a5,-1
    da88:	fcf42623          	sw	a5,-52(s0)
	size_t start = SIZE_MAX/2 + 1;
    da8c:	57fd                	li	a5,-1
    da8e:	17fe                	slli	a5,a5,0x3f
    da90:	fcf43823          	sd	a5,-48(s0)
	size_t m;
	void *q;
	int i;

	for (i=0;;i++) {
    da94:	fc042423          	sw	zero,-56(s0)
		m = mmax(fd, &start);
    da98:	fd040713          	addi	a4,s0,-48
    da9c:	fcc42783          	lw	a5,-52(s0)
    daa0:	85ba                	mv	a1,a4
    daa2:	853e                	mv	a0,a5
    daa4:	ef3ff0ef          	jal	ra,d996 <mmax>
    daa8:	fca43c23          	sd	a0,-40(s0)
		if (!m)
    daac:	fd843783          	ld	a5,-40(s0)
    dab0:	c7b5                	beqz	a5,db1c <t_vmfill+0xbc>
			break;
		q = mmap(0, m, PROT_NONE, MAP_PRIVATE|MAP_ANONYMOUS, fd, 0);
    dab2:	fcc42703          	lw	a4,-52(s0)
    dab6:	4781                	li	a5,0
    dab8:	02200693          	li	a3,34
    dabc:	4601                	li	a2,0
    dabe:	fd843583          	ld	a1,-40(s0)
    dac2:	4501                	li	a0,0
    dac4:	f7dfd0ef          	jal	ra,ba40 <mmap@plt>
    dac8:	fea43023          	sd	a0,-32(s0)
		if (q == MAP_FAILED)
    dacc:	fe043703          	ld	a4,-32(s0)
    dad0:	57fd                	li	a5,-1
    dad2:	00f71463          	bne	a4,a5,dada <t_vmfill+0x7a>
			return -1;
    dad6:	57fd                	li	a5,-1
    dad8:	a0a9                	j	db22 <t_vmfill+0xc2>
		if (i < len) {
    dada:	fc842783          	lw	a5,-56(s0)
    dade:	873e                	mv	a4,a5
    dae0:	fac42783          	lw	a5,-84(s0)
    dae4:	2701                	sext.w	a4,a4
    dae6:	2781                	sext.w	a5,a5
    dae8:	02f75463          	bge	a4,a5,db10 <t_vmfill+0xb0>
			p[i] = q;
    daec:	fc842783          	lw	a5,-56(s0)
    daf0:	078e                	slli	a5,a5,0x3
    daf2:	fb843703          	ld	a4,-72(s0)
    daf6:	97ba                	add	a5,a5,a4
    daf8:	fe043703          	ld	a4,-32(s0)
    dafc:	e398                	sd	a4,0(a5)
			n[i] = m;
    dafe:	fc842783          	lw	a5,-56(s0)
    db02:	078e                	slli	a5,a5,0x3
    db04:	fb043703          	ld	a4,-80(s0)
    db08:	97ba                	add	a5,a5,a4
    db0a:	fd843703          	ld	a4,-40(s0)
    db0e:	e398                	sd	a4,0(a5)
	for (i=0;;i++) {
    db10:	fc842783          	lw	a5,-56(s0)
    db14:	2785                	addiw	a5,a5,1
    db16:	fcf42423          	sw	a5,-56(s0)
		m = mmax(fd, &start);
    db1a:	bfbd                	j	da98 <t_vmfill+0x38>
			break;
    db1c:	0001                	nop
		}
	}
	return i;
    db1e:	fc842783          	lw	a5,-56(s0)
}
    db22:	873e                	mv	a4,a5
    db24:	00050797          	auipc	a5,0x50
    db28:	53c7b783          	ld	a5,1340(a5) # 5e060 <__stack_chk_guard>
    db2c:	fe843683          	ld	a3,-24(s0)
    db30:	639c                	ld	a5,0(a5)
    db32:	8fb5                	xor	a5,a5,a3
    db34:	4681                	li	a3,0
    db36:	c399                	beqz	a5,db3c <t_vmfill+0xdc>
    db38:	f49fd0ef          	jal	ra,ba80 <__stack_chk_fail@plt>
    db3c:	853a                	mv	a0,a4
    db3e:	60e6                	ld	ra,88(sp)
    db40:	6446                	ld	s0,80(sp)
    db42:	6125                	addi	sp,sp,96
    db44:	8082                	ret

000000000000db46 <argv_main>:

#define TEST(c, ...) \
	( (c) || (t_error(#c " failed: " __VA_ARGS__),0) )

int main(int argc, char **argv)
{
    db46:	7179                	addi	sp,sp,-48
    db48:	f406                	sd	ra,40(sp)
    db4a:	f022                	sd	s0,32(sp)
    db4c:	1800                	addi	s0,sp,48
    db4e:	72fd                	lui	t0,0xfffff
    db50:	9116                	add	sp,sp,t0
    db52:	872a                	mv	a4,a0
    db54:	77fd                	lui	a5,0xfffff
    db56:	17c1                	addi	a5,a5,-16 # ffffffffffffeff0 <__BSS_END__+0xfffffffffff9d7b8>
    db58:	97a2                	add	a5,a5,s0
    db5a:	feb7b023          	sd	a1,-32(a5)
    db5e:	77fd                	lui	a5,0xfffff
    db60:	17c1                	addi	a5,a5,-16 # ffffffffffffeff0 <__BSS_END__+0xfffffffffff9d7b8>
    db62:	97a2                	add	a5,a5,s0
    db64:	fee7a623          	sw	a4,-20(a5)
    db68:	00050797          	auipc	a5,0x50
    db6c:	4f87b783          	ld	a5,1272(a5) # 5e060 <__stack_chk_guard>
    db70:	6398                	ld	a4,0(a5)
    db72:	fee43423          	sd	a4,-24(s0)
    db76:	4701                	li	a4,0
	char buf[PATH_MAX];
	TEST(argc == 1, "argc should be 1\n");
    db78:	77fd                	lui	a5,0xfffff
    db7a:	17c1                	addi	a5,a5,-16 # ffffffffffffeff0 <__BSS_END__+0xfffffffffff9d7b8>
    db7c:	97a2                	add	a5,a5,s0
    db7e:	fec7a783          	lw	a5,-20(a5)
    db82:	0007871b          	sext.w	a4,a5
    db86:	4785                	li	a5,1
    db88:	00f70863          	beq	a4,a5,db98 <argv_main+0x52>
    db8c:	00023517          	auipc	a0,0x23
    db90:	04c50513          	addi	a0,a0,76 # 30bd8 <__clzdi2+0x9c0>
    db94:	c3aff0ef          	jal	ra,cfce <t_printf>
	TEST(argv[0] != 0, "argv[0] should not be NULL\n");
    db98:	77fd                	lui	a5,0xfffff
    db9a:	17c1                	addi	a5,a5,-16 # ffffffffffffeff0 <__BSS_END__+0xfffffffffff9d7b8>
    db9c:	97a2                	add	a5,a5,s0
    db9e:	fe07b783          	ld	a5,-32(a5)
    dba2:	639c                	ld	a5,0(a5)
    dba4:	e799                	bnez	a5,dbb2 <argv_main+0x6c>
    dba6:	00023517          	auipc	a0,0x23
    dbaa:	07250513          	addi	a0,a0,114 # 30c18 <__clzdi2+0xa00>
    dbae:	c20ff0ef          	jal	ra,cfce <t_printf>
	TEST(argv[1] == 0, "argv[1] should be NULL\n");
    dbb2:	77fd                	lui	a5,0xfffff
    dbb4:	17c1                	addi	a5,a5,-16 # ffffffffffffeff0 <__BSS_END__+0xfffffffffff9d7b8>
    dbb6:	97a2                	add	a5,a5,s0
    dbb8:	fe07b783          	ld	a5,-32(a5)
    dbbc:	07a1                	addi	a5,a5,8
    dbbe:	639c                	ld	a5,0(a5)
    dbc0:	c799                	beqz	a5,dbce <argv_main+0x88>
    dbc2:	00023517          	auipc	a0,0x23
    dbc6:	0a650513          	addi	a0,a0,166 # 30c68 <__clzdi2+0xa50>
    dbca:	c04ff0ef          	jal	ra,cfce <t_printf>
	TEST(argv[0][0] != 0, "argv[0] should not be empty\n");
    dbce:	77fd                	lui	a5,0xfffff
    dbd0:	17c1                	addi	a5,a5,-16 # ffffffffffffeff0 <__BSS_END__+0xfffffffffff9d7b8>
    dbd2:	97a2                	add	a5,a5,s0
    dbd4:	fe07b783          	ld	a5,-32(a5)
    dbd8:	639c                	ld	a5,0(a5)
    dbda:	0007c783          	lbu	a5,0(a5)
    dbde:	e799                	bnez	a5,dbec <argv_main+0xa6>
    dbe0:	00023517          	auipc	a0,0x23
    dbe4:	0d050513          	addi	a0,a0,208 # 30cb0 <__clzdi2+0xa98>
    dbe8:	be6ff0ef          	jal	ra,cfce <t_printf>
	TEST(snprintf(buf, sizeof buf, "%s", argv[0]) < sizeof buf, "argv[0] is not a valid path\n");
    dbec:	77fd                	lui	a5,0xfffff
    dbee:	17c1                	addi	a5,a5,-16 # ffffffffffffeff0 <__BSS_END__+0xfffffffffff9d7b8>
    dbf0:	97a2                	add	a5,a5,s0
    dbf2:	fe07b783          	ld	a5,-32(a5)
    dbf6:	6398                	ld	a4,0(a5)
    dbf8:	77fd                	lui	a5,0xfffff
    dbfa:	17e1                	addi	a5,a5,-8 # ffffffffffffeff8 <__BSS_END__+0xfffffffffff9d7c0>
    dbfc:	17c1                	addi	a5,a5,-16
    dbfe:	97a2                	add	a5,a5,s0
    dc00:	86ba                	mv	a3,a4
    dc02:	00023617          	auipc	a2,0x23
    dc06:	0fe60613          	addi	a2,a2,254 # 30d00 <__clzdi2+0xae8>
    dc0a:	6585                	lui	a1,0x1
    dc0c:	853e                	mv	a0,a5
    dc0e:	a43fd0ef          	jal	ra,b650 <snprintf@plt>
    dc12:	87aa                	mv	a5,a0
    dc14:	2781                	sext.w	a5,a5
    dc16:	873e                	mv	a4,a5
    dc18:	6785                	lui	a5,0x1
    dc1a:	00f76863          	bltu	a4,a5,dc2a <argv_main+0xe4>
    dc1e:	00023517          	auipc	a0,0x23
    dc22:	0ea50513          	addi	a0,a0,234 # 30d08 <__clzdi2+0xaf0>
    dc26:	ba8ff0ef          	jal	ra,cfce <t_printf>
	return t_status;
    dc2a:	00050797          	auipc	a5,0x50
    dc2e:	4267b783          	ld	a5,1062(a5) # 5e050 <_GLOBAL_OFFSET_TABLE_+0x8>
    dc32:	439c                	lw	a5,0(a5)
    dc34:	2781                	sext.w	a5,a5
}
    dc36:	873e                	mv	a4,a5
    dc38:	00050797          	auipc	a5,0x50
    dc3c:	4287b783          	ld	a5,1064(a5) # 5e060 <__stack_chk_guard>
    dc40:	fe843683          	ld	a3,-24(s0)
    dc44:	639c                	ld	a5,0(a5)
    dc46:	8fb5                	xor	a5,a5,a3
    dc48:	4681                	li	a3,0
    dc4a:	c399                	beqz	a5,dc50 <argv_main+0x10a>
    dc4c:	e35fd0ef          	jal	ra,ba80 <__stack_chk_fail@plt>
    dc50:	853a                	mv	a0,a4
    dc52:	6285                	lui	t0,0x1
    dc54:	9116                	add	sp,sp,t0
    dc56:	70a2                	ld	ra,40(sp)
    dc58:	7402                	ld	s0,32(sp)
    dc5a:	6145                	addi	sp,sp,48
    dc5c:	8082                	ret

000000000000dc5e <basename_main>:
	if (strcmp(want, got) != 0) \
		t_error("basename(\"%s\") got \"%s\" want \"%s\"\n", path, got, want); \
}

int main()
{
    dc5e:	7155                	addi	sp,sp,-208
    dc60:	e586                	sd	ra,200(sp)
    dc62:	e1a2                	sd	s0,192(sp)
    dc64:	0980                	addi	s0,sp,208
    dc66:	00050797          	auipc	a5,0x50
    dc6a:	3fa7b783          	ld	a5,1018(a5) # 5e060 <__stack_chk_guard>
    dc6e:	6398                	ld	a4,0(a5)
    dc70:	fee43423          	sd	a4,-24(s0)
    dc74:	4701                	li	a4,0
	if (strcmp(basename(0), ".") != 0)
    dc76:	4501                	li	a0,0
    dc78:	e99fd0ef          	jal	ra,bb10 <basename@plt>
    dc7c:	87aa                	mv	a5,a0
    dc7e:	00023597          	auipc	a1,0x23
    dc82:	10258593          	addi	a1,a1,258 # 30d80 <__clzdi2+0xb68>
    dc86:	853e                	mv	a0,a5
    dc88:	bd8fe0ef          	jal	ra,c060 <strcmp@plt>
    dc8c:	87aa                	mv	a5,a0
    dc8e:	cf81                	beqz	a5,dca6 <basename_main+0x48>
		t_error("basename(0) returned \"%s\"; expected \".\"\n", basename(0));
    dc90:	4501                	li	a0,0
    dc92:	e7ffd0ef          	jal	ra,bb10 <basename@plt>
    dc96:	87aa                	mv	a5,a0
    dc98:	85be                	mv	a1,a5
    dc9a:	00023517          	auipc	a0,0x23
    dc9e:	0ee50513          	addi	a0,a0,238 # 30d88 <__clzdi2+0xb70>
    dca2:	b2cff0ef          	jal	ra,cfce <t_printf>
	T("", ".");
    dca6:	f8040793          	addi	a5,s0,-128
    dcaa:	00023597          	auipc	a1,0x23
    dcae:	12658593          	addi	a1,a1,294 # 30dd0 <__clzdi2+0xbb8>
    dcb2:	853e                	mv	a0,a5
    dcb4:	80dfd0ef          	jal	ra,b4c0 <strcpy@plt>
    dcb8:	87aa                	mv	a5,a0
    dcba:	853e                	mv	a0,a5
    dcbc:	e55fd0ef          	jal	ra,bb10 <basename@plt>
    dcc0:	f2a43c23          	sd	a0,-200(s0)
    dcc4:	f3843583          	ld	a1,-200(s0)
    dcc8:	00023517          	auipc	a0,0x23
    dccc:	0b850513          	addi	a0,a0,184 # 30d80 <__clzdi2+0xb68>
    dcd0:	b90fe0ef          	jal	ra,c060 <strcmp@plt>
    dcd4:	87aa                	mv	a5,a0
    dcd6:	c38d                	beqz	a5,dcf8 <basename_main+0x9a>
    dcd8:	00023697          	auipc	a3,0x23
    dcdc:	0a868693          	addi	a3,a3,168 # 30d80 <__clzdi2+0xb68>
    dce0:	f3843603          	ld	a2,-200(s0)
    dce4:	00023597          	auipc	a1,0x23
    dce8:	0ec58593          	addi	a1,a1,236 # 30dd0 <__clzdi2+0xbb8>
    dcec:	00023517          	auipc	a0,0x23
    dcf0:	0ec50513          	addi	a0,a0,236 # 30dd8 <__clzdi2+0xbc0>
    dcf4:	adaff0ef          	jal	ra,cfce <t_printf>
	T("/usr/lib", "lib");
    dcf8:	f8040793          	addi	a5,s0,-128
    dcfc:	00023597          	auipc	a1,0x23
    dd00:	12458593          	addi	a1,a1,292 # 30e20 <__clzdi2+0xc08>
    dd04:	853e                	mv	a0,a5
    dd06:	fbafd0ef          	jal	ra,b4c0 <strcpy@plt>
    dd0a:	87aa                	mv	a5,a0
    dd0c:	853e                	mv	a0,a5
    dd0e:	e03fd0ef          	jal	ra,bb10 <basename@plt>
    dd12:	f4a43023          	sd	a0,-192(s0)
    dd16:	f4043583          	ld	a1,-192(s0)
    dd1a:	00023517          	auipc	a0,0x23
    dd1e:	11650513          	addi	a0,a0,278 # 30e30 <__clzdi2+0xc18>
    dd22:	b3efe0ef          	jal	ra,c060 <strcmp@plt>
    dd26:	87aa                	mv	a5,a0
    dd28:	c38d                	beqz	a5,dd4a <basename_main+0xec>
    dd2a:	00023697          	auipc	a3,0x23
    dd2e:	10668693          	addi	a3,a3,262 # 30e30 <__clzdi2+0xc18>
    dd32:	f4043603          	ld	a2,-192(s0)
    dd36:	00023597          	auipc	a1,0x23
    dd3a:	0ea58593          	addi	a1,a1,234 # 30e20 <__clzdi2+0xc08>
    dd3e:	00023517          	auipc	a0,0x23
    dd42:	0fa50513          	addi	a0,a0,250 # 30e38 <__clzdi2+0xc20>
    dd46:	a88ff0ef          	jal	ra,cfce <t_printf>
	T("/usr/", "usr");
    dd4a:	f8040793          	addi	a5,s0,-128
    dd4e:	00023597          	auipc	a1,0x23
    dd52:	13258593          	addi	a1,a1,306 # 30e80 <__clzdi2+0xc68>
    dd56:	853e                	mv	a0,a5
    dd58:	f68fd0ef          	jal	ra,b4c0 <strcpy@plt>
    dd5c:	87aa                	mv	a5,a0
    dd5e:	853e                	mv	a0,a5
    dd60:	db1fd0ef          	jal	ra,bb10 <basename@plt>
    dd64:	f4a43423          	sd	a0,-184(s0)
    dd68:	f4843583          	ld	a1,-184(s0)
    dd6c:	00023517          	auipc	a0,0x23
    dd70:	11c50513          	addi	a0,a0,284 # 30e88 <__clzdi2+0xc70>
    dd74:	aecfe0ef          	jal	ra,c060 <strcmp@plt>
    dd78:	87aa                	mv	a5,a0
    dd7a:	c38d                	beqz	a5,dd9c <basename_main+0x13e>
    dd7c:	00023697          	auipc	a3,0x23
    dd80:	10c68693          	addi	a3,a3,268 # 30e88 <__clzdi2+0xc70>
    dd84:	f4843603          	ld	a2,-184(s0)
    dd88:	00023597          	auipc	a1,0x23
    dd8c:	0f858593          	addi	a1,a1,248 # 30e80 <__clzdi2+0xc68>
    dd90:	00023517          	auipc	a0,0x23
    dd94:	10050513          	addi	a0,a0,256 # 30e90 <__clzdi2+0xc78>
    dd98:	a36ff0ef          	jal	ra,cfce <t_printf>
	T("usr/", "usr");
    dd9c:	f8040793          	addi	a5,s0,-128
    dda0:	00023597          	auipc	a1,0x23
    dda4:	13858593          	addi	a1,a1,312 # 30ed8 <__clzdi2+0xcc0>
    dda8:	853e                	mv	a0,a5
    ddaa:	f16fd0ef          	jal	ra,b4c0 <strcpy@plt>
    ddae:	87aa                	mv	a5,a0
    ddb0:	853e                	mv	a0,a5
    ddb2:	d5ffd0ef          	jal	ra,bb10 <basename@plt>
    ddb6:	f4a43823          	sd	a0,-176(s0)
    ddba:	f5043583          	ld	a1,-176(s0)
    ddbe:	00023517          	auipc	a0,0x23
    ddc2:	0ca50513          	addi	a0,a0,202 # 30e88 <__clzdi2+0xc70>
    ddc6:	a9afe0ef          	jal	ra,c060 <strcmp@plt>
    ddca:	87aa                	mv	a5,a0
    ddcc:	c38d                	beqz	a5,ddee <basename_main+0x190>
    ddce:	00023697          	auipc	a3,0x23
    ddd2:	0ba68693          	addi	a3,a3,186 # 30e88 <__clzdi2+0xc70>
    ddd6:	f5043603          	ld	a2,-176(s0)
    ddda:	00023597          	auipc	a1,0x23
    ddde:	0fe58593          	addi	a1,a1,254 # 30ed8 <__clzdi2+0xcc0>
    dde2:	00023517          	auipc	a0,0x23
    dde6:	0fe50513          	addi	a0,a0,254 # 30ee0 <__clzdi2+0xcc8>
    ddea:	9e4ff0ef          	jal	ra,cfce <t_printf>
	T("/", "/");
    ddee:	f8040793          	addi	a5,s0,-128
    ddf2:	00023597          	auipc	a1,0x23
    ddf6:	13658593          	addi	a1,a1,310 # 30f28 <__clzdi2+0xd10>
    ddfa:	853e                	mv	a0,a5
    ddfc:	ec4fd0ef          	jal	ra,b4c0 <strcpy@plt>
    de00:	87aa                	mv	a5,a0
    de02:	853e                	mv	a0,a5
    de04:	d0dfd0ef          	jal	ra,bb10 <basename@plt>
    de08:	f4a43c23          	sd	a0,-168(s0)
    de0c:	f5843583          	ld	a1,-168(s0)
    de10:	00023517          	auipc	a0,0x23
    de14:	11850513          	addi	a0,a0,280 # 30f28 <__clzdi2+0xd10>
    de18:	a48fe0ef          	jal	ra,c060 <strcmp@plt>
    de1c:	87aa                	mv	a5,a0
    de1e:	c38d                	beqz	a5,de40 <basename_main+0x1e2>
    de20:	00023697          	auipc	a3,0x23
    de24:	10868693          	addi	a3,a3,264 # 30f28 <__clzdi2+0xd10>
    de28:	f5843603          	ld	a2,-168(s0)
    de2c:	00023597          	auipc	a1,0x23
    de30:	0fc58593          	addi	a1,a1,252 # 30f28 <__clzdi2+0xd10>
    de34:	00023517          	auipc	a0,0x23
    de38:	0fc50513          	addi	a0,a0,252 # 30f30 <__clzdi2+0xd18>
    de3c:	992ff0ef          	jal	ra,cfce <t_printf>
	T("///", "/");
    de40:	f8040793          	addi	a5,s0,-128
    de44:	00023597          	auipc	a1,0x23
    de48:	13458593          	addi	a1,a1,308 # 30f78 <__clzdi2+0xd60>
    de4c:	853e                	mv	a0,a5
    de4e:	e72fd0ef          	jal	ra,b4c0 <strcpy@plt>
    de52:	87aa                	mv	a5,a0
    de54:	853e                	mv	a0,a5
    de56:	cbbfd0ef          	jal	ra,bb10 <basename@plt>
    de5a:	f6a43023          	sd	a0,-160(s0)
    de5e:	f6043583          	ld	a1,-160(s0)
    de62:	00023517          	auipc	a0,0x23
    de66:	0c650513          	addi	a0,a0,198 # 30f28 <__clzdi2+0xd10>
    de6a:	9f6fe0ef          	jal	ra,c060 <strcmp@plt>
    de6e:	87aa                	mv	a5,a0
    de70:	c38d                	beqz	a5,de92 <basename_main+0x234>
    de72:	00023697          	auipc	a3,0x23
    de76:	0b668693          	addi	a3,a3,182 # 30f28 <__clzdi2+0xd10>
    de7a:	f6043603          	ld	a2,-160(s0)
    de7e:	00023597          	auipc	a1,0x23
    de82:	0fa58593          	addi	a1,a1,250 # 30f78 <__clzdi2+0xd60>
    de86:	00023517          	auipc	a0,0x23
    de8a:	0fa50513          	addi	a0,a0,250 # 30f80 <__clzdi2+0xd68>
    de8e:	940ff0ef          	jal	ra,cfce <t_printf>
	T("//usr//lib//", "lib");
    de92:	f8040793          	addi	a5,s0,-128
    de96:	00023597          	auipc	a1,0x23
    de9a:	13258593          	addi	a1,a1,306 # 30fc8 <__clzdi2+0xdb0>
    de9e:	853e                	mv	a0,a5
    dea0:	e20fd0ef          	jal	ra,b4c0 <strcpy@plt>
    dea4:	87aa                	mv	a5,a0
    dea6:	853e                	mv	a0,a5
    dea8:	c69fd0ef          	jal	ra,bb10 <basename@plt>
    deac:	f6a43423          	sd	a0,-152(s0)
    deb0:	f6843583          	ld	a1,-152(s0)
    deb4:	00023517          	auipc	a0,0x23
    deb8:	f7c50513          	addi	a0,a0,-132 # 30e30 <__clzdi2+0xc18>
    debc:	9a4fe0ef          	jal	ra,c060 <strcmp@plt>
    dec0:	87aa                	mv	a5,a0
    dec2:	c38d                	beqz	a5,dee4 <basename_main+0x286>
    dec4:	00023697          	auipc	a3,0x23
    dec8:	f6c68693          	addi	a3,a3,-148 # 30e30 <__clzdi2+0xc18>
    decc:	f6843603          	ld	a2,-152(s0)
    ded0:	00023597          	auipc	a1,0x23
    ded4:	0f858593          	addi	a1,a1,248 # 30fc8 <__clzdi2+0xdb0>
    ded8:	00023517          	auipc	a0,0x23
    dedc:	10050513          	addi	a0,a0,256 # 30fd8 <__clzdi2+0xdc0>
    dee0:	8eeff0ef          	jal	ra,cfce <t_printf>
	T(".", ".");
    dee4:	f8040793          	addi	a5,s0,-128
    dee8:	00023597          	auipc	a1,0x23
    deec:	e9858593          	addi	a1,a1,-360 # 30d80 <__clzdi2+0xb68>
    def0:	853e                	mv	a0,a5
    def2:	dcefd0ef          	jal	ra,b4c0 <strcpy@plt>
    def6:	87aa                	mv	a5,a0
    def8:	853e                	mv	a0,a5
    defa:	c17fd0ef          	jal	ra,bb10 <basename@plt>
    defe:	f6a43823          	sd	a0,-144(s0)
    df02:	f7043583          	ld	a1,-144(s0)
    df06:	00023517          	auipc	a0,0x23
    df0a:	e7a50513          	addi	a0,a0,-390 # 30d80 <__clzdi2+0xb68>
    df0e:	952fe0ef          	jal	ra,c060 <strcmp@plt>
    df12:	87aa                	mv	a5,a0
    df14:	c38d                	beqz	a5,df36 <basename_main+0x2d8>
    df16:	00023697          	auipc	a3,0x23
    df1a:	e6a68693          	addi	a3,a3,-406 # 30d80 <__clzdi2+0xb68>
    df1e:	f7043603          	ld	a2,-144(s0)
    df22:	00023597          	auipc	a1,0x23
    df26:	e5e58593          	addi	a1,a1,-418 # 30d80 <__clzdi2+0xb68>
    df2a:	00023517          	auipc	a0,0x23
    df2e:	0f650513          	addi	a0,a0,246 # 31020 <__clzdi2+0xe08>
    df32:	89cff0ef          	jal	ra,cfce <t_printf>
	T("..", "..");
    df36:	f8040793          	addi	a5,s0,-128
    df3a:	00023597          	auipc	a1,0x23
    df3e:	12e58593          	addi	a1,a1,302 # 31068 <__clzdi2+0xe50>
    df42:	853e                	mv	a0,a5
    df44:	d7cfd0ef          	jal	ra,b4c0 <strcpy@plt>
    df48:	87aa                	mv	a5,a0
    df4a:	853e                	mv	a0,a5
    df4c:	bc5fd0ef          	jal	ra,bb10 <basename@plt>
    df50:	f6a43c23          	sd	a0,-136(s0)
    df54:	f7843583          	ld	a1,-136(s0)
    df58:	00023517          	auipc	a0,0x23
    df5c:	11050513          	addi	a0,a0,272 # 31068 <__clzdi2+0xe50>
    df60:	900fe0ef          	jal	ra,c060 <strcmp@plt>
    df64:	87aa                	mv	a5,a0
    df66:	c38d                	beqz	a5,df88 <basename_main+0x32a>
    df68:	00023697          	auipc	a3,0x23
    df6c:	10068693          	addi	a3,a3,256 # 31068 <__clzdi2+0xe50>
    df70:	f7843603          	ld	a2,-136(s0)
    df74:	00023597          	auipc	a1,0x23
    df78:	0f458593          	addi	a1,a1,244 # 31068 <__clzdi2+0xe50>
    df7c:	00023517          	auipc	a0,0x23
    df80:	0f450513          	addi	a0,a0,244 # 31070 <__clzdi2+0xe58>
    df84:	84aff0ef          	jal	ra,cfce <t_printf>
	return t_status;
    df88:	00050797          	auipc	a5,0x50
    df8c:	0c87b783          	ld	a5,200(a5) # 5e050 <_GLOBAL_OFFSET_TABLE_+0x8>
    df90:	439c                	lw	a5,0(a5)
    df92:	2781                	sext.w	a5,a5
}
    df94:	873e                	mv	a4,a5
    df96:	00050797          	auipc	a5,0x50
    df9a:	0ca7b783          	ld	a5,202(a5) # 5e060 <__stack_chk_guard>
    df9e:	fe843683          	ld	a3,-24(s0)
    dfa2:	639c                	ld	a5,0(a5)
    dfa4:	8fb5                	xor	a5,a5,a3
    dfa6:	4681                	li	a3,0
    dfa8:	c399                	beqz	a5,dfae <basename_main+0x350>
    dfaa:	ad7fd0ef          	jal	ra,ba80 <__stack_chk_fail@plt>
    dfae:	853a                	mv	a0,a4
    dfb0:	60ae                	ld	ra,200(sp)
    dfb2:	640e                	ld	s0,192(sp)
    dfb4:	6169                	addi	sp,sp,208
    dfb6:	8082                	ret

000000000000dfb8 <clocale_mbfuncs_main>:
#include <langinfo.h>
#include <limits.h>
#include "test.h"

int main(void)
{
    dfb8:	81010113          	addi	sp,sp,-2032
    dfbc:	7e113423          	sd	ra,2024(sp)
    dfc0:	7e813023          	sd	s0,2016(sp)
    dfc4:	7c913c23          	sd	s1,2008(sp)
    dfc8:	7f010413          	addi	s0,sp,2032
    dfcc:	b8010113          	addi	sp,sp,-1152
    dfd0:	00050797          	auipc	a5,0x50
    dfd4:	0907b783          	ld	a5,144(a5) # 5e060 <__stack_chk_guard>
    dfd8:	6398                	ld	a4,0(a5)
    dfda:	fce43c23          	sd	a4,-40(s0)
    dfde:	4701                	li	a4,0
	mbstate_t st, st2;
	wchar_t wc, map[257], wtmp[257];
	char s[MB_LEN_MAX*256];
	size_t rv;
	int c;
	int ni_errors=0;
    dfe0:	77fd                	lui	a5,0xfffff
    dfe2:	1781                	addi	a5,a5,-32 # ffffffffffffefe0 <__BSS_END__+0xfffffffffff9d7a8>
    dfe4:	97a2                	add	a5,a5,s0
    dfe6:	3c07a423          	sw	zero,968(a5)

	setlocale(LC_CTYPE, "C");
    dfea:	00023597          	auipc	a1,0x23
    dfee:	0ce58593          	addi	a1,a1,206 # 310b8 <__clzdi2+0xea0>
    dff2:	4501                	li	a0,0
    dff4:	93cfe0ef          	jal	ra,c130 <setlocale@plt>

	if (MB_CUR_MAX != 1) t_error("MB_CUR_MAX = %d, expected 1\n", (int)MB_CUR_MAX);
    dff8:	ba9fd0ef          	jal	ra,bba0 <__ctype_get_mb_cur_max@plt>
    dffc:	872a                	mv	a4,a0
    dffe:	4785                	li	a5,1
    e000:	00f70d63          	beq	a4,a5,e01a <clocale_mbfuncs_main+0x62>
    e004:	b9dfd0ef          	jal	ra,bba0 <__ctype_get_mb_cur_max@plt>
    e008:	87aa                	mv	a5,a0
    e00a:	2781                	sext.w	a5,a5
    e00c:	85be                	mv	a1,a5
    e00e:	00023517          	auipc	a0,0x23
    e012:	0b250513          	addi	a0,a0,178 # 310c0 <__clzdi2+0xea8>
    e016:	fb9fe0ef          	jal	ra,cfce <t_printf>

	for (i=0; i<256; i++) {
    e01a:	77fd                	lui	a5,0xfffff
    e01c:	1781                	addi	a5,a5,-32 # ffffffffffffefe0 <__BSS_END__+0xfffffffffff9d7a8>
    e01e:	97a2                	add	a5,a5,s0
    e020:	3c07a023          	sw	zero,960(a5)
    e024:	a2c9                	j	e1e6 <clocale_mbfuncs_main+0x22e>
		st = (mbstate_t){0};
    e026:	77fd                	lui	a5,0xfffff
    e028:	1781                	addi	a5,a5,-32 # ffffffffffffefe0 <__BSS_END__+0xfffffffffff9d7a8>
    e02a:	97a2                	add	a5,a5,s0
    e02c:	3c07b823          	sd	zero,976(a5)
		if (mbrtowc(&wc, &(char){i}, 1, &st) != !!i)
    e030:	77fd                	lui	a5,0xfffff
    e032:	1781                	addi	a5,a5,-32 # ffffffffffffefe0 <__BSS_END__+0xfffffffffff9d7a8>
    e034:	97a2                	add	a5,a5,s0
    e036:	3c07a783          	lw	a5,960(a5)
    e03a:	0ff7f713          	zext.b	a4,a5
    e03e:	77fd                	lui	a5,0xfffff
    e040:	1781                	addi	a5,a5,-32 # ffffffffffffefe0 <__BSS_END__+0xfffffffffff9d7a8>
    e042:	97a2                	add	a5,a5,s0
    e044:	3ce78c23          	sb	a4,984(a5)
    e048:	77fd                	lui	a5,0xfffff
    e04a:	3d078793          	addi	a5,a5,976 # fffffffffffff3d0 <__BSS_END__+0xfffffffffff9db98>
    e04e:	1781                	addi	a5,a5,-32
    e050:	008786b3          	add	a3,a5,s0
    e054:	77fd                	lui	a5,0xfffff
    e056:	3d878793          	addi	a5,a5,984 # fffffffffffff3d8 <__BSS_END__+0xfffffffffff9dba0>
    e05a:	1781                	addi	a5,a5,-32
    e05c:	00878733          	add	a4,a5,s0
    e060:	77fd                	lui	a5,0xfffff
    e062:	3bc78793          	addi	a5,a5,956 # fffffffffffff3bc <__BSS_END__+0xfffffffffff9db84>
    e066:	1781                	addi	a5,a5,-32
    e068:	97a2                	add	a5,a5,s0
    e06a:	4605                	li	a2,1
    e06c:	85ba                	mv	a1,a4
    e06e:	853e                	mv	a0,a5
    e070:	821fd0ef          	jal	ra,b890 <mbrtowc@plt>
    e074:	872a                	mv	a4,a0
    e076:	77fd                	lui	a5,0xfffff
    e078:	1781                	addi	a5,a5,-32 # ffffffffffffefe0 <__BSS_END__+0xfffffffffff9d7a8>
    e07a:	97a2                	add	a5,a5,s0
    e07c:	3c07a783          	lw	a5,960(a5)
    e080:	2781                	sext.w	a5,a5
    e082:	00f037b3          	snez	a5,a5
    e086:	0ff7f793          	zext.b	a5,a5
    e08a:	00f70e63          	beq	a4,a5,e0a6 <clocale_mbfuncs_main+0xee>
			t_error("mbrtowc failed to convert byte %.2x to wchar_t\n", i);
    e08e:	77fd                	lui	a5,0xfffff
    e090:	1781                	addi	a5,a5,-32 # ffffffffffffefe0 <__BSS_END__+0xfffffffffff9d7a8>
    e092:	97a2                	add	a5,a5,s0
    e094:	3c07a783          	lw	a5,960(a5)
    e098:	85be                	mv	a1,a5
    e09a:	00023517          	auipc	a0,0x23
    e09e:	06e50513          	addi	a0,a0,110 # 31108 <__clzdi2+0xef0>
    e0a2:	f2dfe0ef          	jal	ra,cfce <t_printf>
		if ((map[i]=btowc(i)) == WEOF) {
    e0a6:	77fd                	lui	a5,0xfffff
    e0a8:	1781                	addi	a5,a5,-32 # ffffffffffffefe0 <__BSS_END__+0xfffffffffff9d7a8>
    e0aa:	97a2                	add	a5,a5,s0
    e0ac:	3c07a783          	lw	a5,960(a5)
    e0b0:	853e                	mv	a0,a5
    e0b2:	86ffd0ef          	jal	ra,b920 <btowc@plt>
    e0b6:	87aa                	mv	a5,a0
    e0b8:	2781                	sext.w	a5,a5
    e0ba:	0007871b          	sext.w	a4,a5
    e0be:	77fd                	lui	a5,0xfffff
    e0c0:	1781                	addi	a5,a5,-32 # ffffffffffffefe0 <__BSS_END__+0xfffffffffff9d7a8>
    e0c2:	008786b3          	add	a3,a5,s0
    e0c6:	77fd                	lui	a5,0xfffff
    e0c8:	1781                	addi	a5,a5,-32 # ffffffffffffefe0 <__BSS_END__+0xfffffffffff9d7a8>
    e0ca:	97a2                	add	a5,a5,s0
    e0cc:	3c07a783          	lw	a5,960(a5)
    e0d0:	078a                	slli	a5,a5,0x2
    e0d2:	97b6                	add	a5,a5,a3
    e0d4:	3ee7a423          	sw	a4,1000(a5)
    e0d8:	77fd                	lui	a5,0xfffff
    e0da:	1781                	addi	a5,a5,-32 # ffffffffffffefe0 <__BSS_END__+0xfffffffffff9d7a8>
    e0dc:	00878733          	add	a4,a5,s0
    e0e0:	77fd                	lui	a5,0xfffff
    e0e2:	1781                	addi	a5,a5,-32 # ffffffffffffefe0 <__BSS_END__+0xfffffffffff9d7a8>
    e0e4:	97a2                	add	a5,a5,s0
    e0e6:	3c07a783          	lw	a5,960(a5)
    e0ea:	078a                	slli	a5,a5,0x2
    e0ec:	97ba                	add	a5,a5,a4
    e0ee:	3e87a783          	lw	a5,1000(a5)
    e0f2:	873e                	mv	a4,a5
    e0f4:	57fd                	li	a5,-1
    e0f6:	00f71f63          	bne	a4,a5,e114 <clocale_mbfuncs_main+0x15c>
			t_error("btowc failed to convert byte %.2x to wchar_t\n", i);
    e0fa:	77fd                	lui	a5,0xfffff
    e0fc:	1781                	addi	a5,a5,-32 # ffffffffffffefe0 <__BSS_END__+0xfffffffffff9d7a8>
    e0fe:	97a2                	add	a5,a5,s0
    e100:	3c07a783          	lw	a5,960(a5)
    e104:	85be                	mv	a1,a5
    e106:	00023517          	auipc	a0,0x23
    e10a:	05a50513          	addi	a0,a0,90 # 31160 <__clzdi2+0xf48>
    e10e:	ec1fe0ef          	jal	ra,cfce <t_printf>
    e112:	a87d                	j	e1d0 <clocale_mbfuncs_main+0x218>
			continue;
		}
		for (j=0; j<i; j++) {
    e114:	77fd                	lui	a5,0xfffff
    e116:	1781                	addi	a5,a5,-32 # ffffffffffffefe0 <__BSS_END__+0xfffffffffff9d7a8>
    e118:	97a2                	add	a5,a5,s0
    e11a:	3c07a223          	sw	zero,964(a5)
    e11e:	a851                	j	e1b2 <clocale_mbfuncs_main+0x1fa>
			if (map[j]==map[i])
    e120:	77fd                	lui	a5,0xfffff
    e122:	1781                	addi	a5,a5,-32 # ffffffffffffefe0 <__BSS_END__+0xfffffffffff9d7a8>
    e124:	00878733          	add	a4,a5,s0
    e128:	77fd                	lui	a5,0xfffff
    e12a:	1781                	addi	a5,a5,-32 # ffffffffffffefe0 <__BSS_END__+0xfffffffffff9d7a8>
    e12c:	97a2                	add	a5,a5,s0
    e12e:	3c47a783          	lw	a5,964(a5)
    e132:	078a                	slli	a5,a5,0x2
    e134:	97ba                	add	a5,a5,a4
    e136:	3e87a683          	lw	a3,1000(a5)
    e13a:	77fd                	lui	a5,0xfffff
    e13c:	1781                	addi	a5,a5,-32 # ffffffffffffefe0 <__BSS_END__+0xfffffffffff9d7a8>
    e13e:	00878733          	add	a4,a5,s0
    e142:	77fd                	lui	a5,0xfffff
    e144:	1781                	addi	a5,a5,-32 # ffffffffffffefe0 <__BSS_END__+0xfffffffffff9d7a8>
    e146:	97a2                	add	a5,a5,s0
    e148:	3c07a783          	lw	a5,960(a5)
    e14c:	078a                	slli	a5,a5,0x2
    e14e:	97ba                	add	a5,a5,a4
    e150:	3e87a783          	lw	a5,1000(a5)
    e154:	8736                	mv	a4,a3
    e156:	04f71363          	bne	a4,a5,e19c <clocale_mbfuncs_main+0x1e4>
				t_error("bytes %.2x and %.2x map to same wchar_t %.4x\n", j, i, (unsigned)map[i]);
    e15a:	77fd                	lui	a5,0xfffff
    e15c:	1781                	addi	a5,a5,-32 # ffffffffffffefe0 <__BSS_END__+0xfffffffffff9d7a8>
    e15e:	00878733          	add	a4,a5,s0
    e162:	77fd                	lui	a5,0xfffff
    e164:	1781                	addi	a5,a5,-32 # ffffffffffffefe0 <__BSS_END__+0xfffffffffff9d7a8>
    e166:	97a2                	add	a5,a5,s0
    e168:	3c07a783          	lw	a5,960(a5)
    e16c:	078a                	slli	a5,a5,0x2
    e16e:	97ba                	add	a5,a5,a4
    e170:	3e87a783          	lw	a5,1000(a5)
    e174:	0007869b          	sext.w	a3,a5
    e178:	77fd                	lui	a5,0xfffff
    e17a:	1781                	addi	a5,a5,-32 # ffffffffffffefe0 <__BSS_END__+0xfffffffffff9d7a8>
    e17c:	97a2                	add	a5,a5,s0
    e17e:	3c07a703          	lw	a4,960(a5)
    e182:	77fd                	lui	a5,0xfffff
    e184:	1781                	addi	a5,a5,-32 # ffffffffffffefe0 <__BSS_END__+0xfffffffffff9d7a8>
    e186:	97a2                	add	a5,a5,s0
    e188:	3c47a783          	lw	a5,964(a5)
    e18c:	863a                	mv	a2,a4
    e18e:	85be                	mv	a1,a5
    e190:	00023517          	auipc	a0,0x23
    e194:	02850513          	addi	a0,a0,40 # 311b8 <__clzdi2+0xfa0>
    e198:	e37fe0ef          	jal	ra,cfce <t_printf>
		for (j=0; j<i; j++) {
    e19c:	77fd                	lui	a5,0xfffff
    e19e:	1781                	addi	a5,a5,-32 # ffffffffffffefe0 <__BSS_END__+0xfffffffffff9d7a8>
    e1a0:	97a2                	add	a5,a5,s0
    e1a2:	777d                	lui	a4,0xfffff
    e1a4:	1701                	addi	a4,a4,-32 # ffffffffffffefe0 <__BSS_END__+0xfffffffffff9d7a8>
    e1a6:	9722                	add	a4,a4,s0
    e1a8:	3c472703          	lw	a4,964(a4)
    e1ac:	2705                	addiw	a4,a4,1
    e1ae:	3ce7a223          	sw	a4,964(a5)
    e1b2:	77fd                	lui	a5,0xfffff
    e1b4:	1781                	addi	a5,a5,-32 # ffffffffffffefe0 <__BSS_END__+0xfffffffffff9d7a8>
    e1b6:	00878733          	add	a4,a5,s0
    e1ba:	77fd                	lui	a5,0xfffff
    e1bc:	1781                	addi	a5,a5,-32 # ffffffffffffefe0 <__BSS_END__+0xfffffffffff9d7a8>
    e1be:	97a2                	add	a5,a5,s0
    e1c0:	3c472703          	lw	a4,964(a4)
    e1c4:	3c07a783          	lw	a5,960(a5)
    e1c8:	2701                	sext.w	a4,a4
    e1ca:	2781                	sext.w	a5,a5
    e1cc:	f4f74ae3          	blt	a4,a5,e120 <clocale_mbfuncs_main+0x168>
	for (i=0; i<256; i++) {
    e1d0:	77fd                	lui	a5,0xfffff
    e1d2:	1781                	addi	a5,a5,-32 # ffffffffffffefe0 <__BSS_END__+0xfffffffffff9d7a8>
    e1d4:	97a2                	add	a5,a5,s0
    e1d6:	777d                	lui	a4,0xfffff
    e1d8:	1701                	addi	a4,a4,-32 # ffffffffffffefe0 <__BSS_END__+0xfffffffffff9d7a8>
    e1da:	9722                	add	a4,a4,s0
    e1dc:	3c072703          	lw	a4,960(a4)
    e1e0:	2705                	addiw	a4,a4,1
    e1e2:	3ce7a023          	sw	a4,960(a5)
    e1e6:	77fd                	lui	a5,0xfffff
    e1e8:	1781                	addi	a5,a5,-32 # ffffffffffffefe0 <__BSS_END__+0xfffffffffff9d7a8>
    e1ea:	97a2                	add	a5,a5,s0
    e1ec:	3c07a783          	lw	a5,960(a5)
    e1f0:	0007871b          	sext.w	a4,a5
    e1f4:	0ff00793          	li	a5,255
    e1f8:	e2e7d7e3          	bge	a5,a4,e026 <clocale_mbfuncs_main+0x6e>
		}
	}

	for (i=0; i<256; i++) {
    e1fc:	77fd                	lui	a5,0xfffff
    e1fe:	1781                	addi	a5,a5,-32 # ffffffffffffefe0 <__BSS_END__+0xfffffffffff9d7a8>
    e200:	97a2                	add	a5,a5,s0
    e202:	3c07a023          	sw	zero,960(a5)
    e206:	a075                	j	e2b2 <clocale_mbfuncs_main+0x2fa>
		if (map[i]==WEOF) continue;
    e208:	77fd                	lui	a5,0xfffff
    e20a:	1781                	addi	a5,a5,-32 # ffffffffffffefe0 <__BSS_END__+0xfffffffffff9d7a8>
    e20c:	00878733          	add	a4,a5,s0
    e210:	77fd                	lui	a5,0xfffff
    e212:	1781                	addi	a5,a5,-32 # ffffffffffffefe0 <__BSS_END__+0xfffffffffff9d7a8>
    e214:	97a2                	add	a5,a5,s0
    e216:	3c07a783          	lw	a5,960(a5)
    e21a:	078a                	slli	a5,a5,0x2
    e21c:	97ba                	add	a5,a5,a4
    e21e:	3e87a783          	lw	a5,1000(a5)
    e222:	873e                	mv	a4,a5
    e224:	57fd                	li	a5,-1
    e226:	06f70a63          	beq	a4,a5,e29a <clocale_mbfuncs_main+0x2e2>
		if (wctob(map[i]) != i)
    e22a:	77fd                	lui	a5,0xfffff
    e22c:	1781                	addi	a5,a5,-32 # ffffffffffffefe0 <__BSS_END__+0xfffffffffff9d7a8>
    e22e:	00878733          	add	a4,a5,s0
    e232:	77fd                	lui	a5,0xfffff
    e234:	1781                	addi	a5,a5,-32 # ffffffffffffefe0 <__BSS_END__+0xfffffffffff9d7a8>
    e236:	97a2                	add	a5,a5,s0
    e238:	3c07a783          	lw	a5,960(a5)
    e23c:	078a                	slli	a5,a5,0x2
    e23e:	97ba                	add	a5,a5,a4
    e240:	3e87a783          	lw	a5,1000(a5)
    e244:	2781                	sext.w	a5,a5
    e246:	853e                	mv	a0,a5
    e248:	968fe0ef          	jal	ra,c3b0 <wctob@plt>
    e24c:	87aa                	mv	a5,a0
    e24e:	873e                	mv	a4,a5
    e250:	77fd                	lui	a5,0xfffff
    e252:	1781                	addi	a5,a5,-32 # ffffffffffffefe0 <__BSS_END__+0xfffffffffff9d7a8>
    e254:	97a2                	add	a5,a5,s0
    e256:	3c07a783          	lw	a5,960(a5)
    e25a:	2781                	sext.w	a5,a5
    e25c:	04e78063          	beq	a5,a4,e29c <clocale_mbfuncs_main+0x2e4>
			t_error("wctob failed to convert wchar_t %.4x back to byte %.2x\n", (unsigned)map[i], i);
    e260:	77fd                	lui	a5,0xfffff
    e262:	1781                	addi	a5,a5,-32 # ffffffffffffefe0 <__BSS_END__+0xfffffffffff9d7a8>
    e264:	00878733          	add	a4,a5,s0
    e268:	77fd                	lui	a5,0xfffff
    e26a:	1781                	addi	a5,a5,-32 # ffffffffffffefe0 <__BSS_END__+0xfffffffffff9d7a8>
    e26c:	97a2                	add	a5,a5,s0
    e26e:	3c07a783          	lw	a5,960(a5)
    e272:	078a                	slli	a5,a5,0x2
    e274:	97ba                	add	a5,a5,a4
    e276:	3e87a783          	lw	a5,1000(a5)
    e27a:	0007871b          	sext.w	a4,a5
    e27e:	77fd                	lui	a5,0xfffff
    e280:	1781                	addi	a5,a5,-32 # ffffffffffffefe0 <__BSS_END__+0xfffffffffff9d7a8>
    e282:	97a2                	add	a5,a5,s0
    e284:	3c07a783          	lw	a5,960(a5)
    e288:	863e                	mv	a2,a5
    e28a:	85ba                	mv	a1,a4
    e28c:	00023517          	auipc	a0,0x23
    e290:	f8450513          	addi	a0,a0,-124 # 31210 <__clzdi2+0xff8>
    e294:	d3bfe0ef          	jal	ra,cfce <t_printf>
    e298:	a011                	j	e29c <clocale_mbfuncs_main+0x2e4>
		if (map[i]==WEOF) continue;
    e29a:	0001                	nop
	for (i=0; i<256; i++) {
    e29c:	77fd                	lui	a5,0xfffff
    e29e:	1781                	addi	a5,a5,-32 # ffffffffffffefe0 <__BSS_END__+0xfffffffffff9d7a8>
    e2a0:	97a2                	add	a5,a5,s0
    e2a2:	777d                	lui	a4,0xfffff
    e2a4:	1701                	addi	a4,a4,-32 # ffffffffffffefe0 <__BSS_END__+0xfffffffffff9d7a8>
    e2a6:	9722                	add	a4,a4,s0
    e2a8:	3c072703          	lw	a4,960(a4)
    e2ac:	2705                	addiw	a4,a4,1
    e2ae:	3ce7a023          	sw	a4,960(a5)
    e2b2:	77fd                	lui	a5,0xfffff
    e2b4:	1781                	addi	a5,a5,-32 # ffffffffffffefe0 <__BSS_END__+0xfffffffffff9d7a8>
    e2b6:	97a2                	add	a5,a5,s0
    e2b8:	3c07a783          	lw	a5,960(a5)
    e2bc:	0007871b          	sext.w	a4,a5
    e2c0:	0ff00793          	li	a5,255
    e2c4:	f4e7d2e3          	bge	a5,a4,e208 <clocale_mbfuncs_main+0x250>
	}

	/* covering whole 32-bit range would be too slow... maybe add random high tests? */
	for (i=0; i<0x110000; i++) {
    e2c8:	77fd                	lui	a5,0xfffff
    e2ca:	1781                	addi	a5,a5,-32 # ffffffffffffefe0 <__BSS_END__+0xfffffffffff9d7a8>
    e2cc:	97a2                	add	a5,a5,s0
    e2ce:	3c07a023          	sw	zero,960(a5)
    e2d2:	a21d                	j	e3f8 <clocale_mbfuncs_main+0x440>
		if (wcschr(map+1, i)) continue;
    e2d4:	77fd                	lui	a5,0xfffff
    e2d6:	3e878793          	addi	a5,a5,1000 # fffffffffffff3e8 <__BSS_END__+0xfffffffffff9dbb0>
    e2da:	1781                	addi	a5,a5,-32
    e2dc:	97a2                	add	a5,a5,s0
    e2de:	0791                	addi	a5,a5,4
    e2e0:	777d                	lui	a4,0xfffff
    e2e2:	1701                	addi	a4,a4,-32 # ffffffffffffefe0 <__BSS_END__+0xfffffffffff9d7a8>
    e2e4:	9722                	add	a4,a4,s0
    e2e6:	3c072703          	lw	a4,960(a4)
    e2ea:	85ba                	mv	a1,a4
    e2ec:	853e                	mv	a0,a5
    e2ee:	bc3fd0ef          	jal	ra,beb0 <wcschr@plt>
    e2f2:	87aa                	mv	a5,a0
    e2f4:	e7f5                	bnez	a5,e3e0 <clocale_mbfuncs_main+0x428>
		if ((c=wctob(i)) != WEOF && ni_errors++ < 50)
    e2f6:	77fd                	lui	a5,0xfffff
    e2f8:	1781                	addi	a5,a5,-32 # ffffffffffffefe0 <__BSS_END__+0xfffffffffff9d7a8>
    e2fa:	97a2                	add	a5,a5,s0
    e2fc:	3c07a703          	lw	a4,960(a5)
    e300:	77fd                	lui	a5,0xfffff
    e302:	1781                	addi	a5,a5,-32 # ffffffffffffefe0 <__BSS_END__+0xfffffffffff9d7a8>
    e304:	008784b3          	add	s1,a5,s0
    e308:	853a                	mv	a0,a4
    e30a:	8a6fe0ef          	jal	ra,c3b0 <wctob@plt>
    e30e:	87aa                	mv	a5,a0
    e310:	3cf4a623          	sw	a5,972(s1)
    e314:	77fd                	lui	a5,0xfffff
    e316:	1781                	addi	a5,a5,-32 # ffffffffffffefe0 <__BSS_END__+0xfffffffffff9d7a8>
    e318:	97a2                	add	a5,a5,s0
    e31a:	3cc7a783          	lw	a5,972(a5)
    e31e:	0007871b          	sext.w	a4,a5
    e322:	57fd                	li	a5,-1
    e324:	04f70563          	beq	a4,a5,e36e <clocale_mbfuncs_main+0x3b6>
    e328:	77fd                	lui	a5,0xfffff
    e32a:	1781                	addi	a5,a5,-32 # ffffffffffffefe0 <__BSS_END__+0xfffffffffff9d7a8>
    e32c:	97a2                	add	a5,a5,s0
    e32e:	3c87a783          	lw	a5,968(a5)
    e332:	777d                	lui	a4,0xfffff
    e334:	1701                	addi	a4,a4,-32 # ffffffffffffefe0 <__BSS_END__+0xfffffffffff9d7a8>
    e336:	9722                	add	a4,a4,s0
    e338:	0017869b          	addiw	a3,a5,1
    e33c:	3cd72423          	sw	a3,968(a4)
    e340:	873e                	mv	a4,a5
    e342:	03100793          	li	a5,49
    e346:	02e7c463          	blt	a5,a4,e36e <clocale_mbfuncs_main+0x3b6>
			t_error("wctob accepted non-image wchar_t %.4x as byte %.2x\n", i, c);
    e34a:	77fd                	lui	a5,0xfffff
    e34c:	1781                	addi	a5,a5,-32 # ffffffffffffefe0 <__BSS_END__+0xfffffffffff9d7a8>
    e34e:	97a2                	add	a5,a5,s0
    e350:	3cc7a703          	lw	a4,972(a5)
    e354:	77fd                	lui	a5,0xfffff
    e356:	1781                	addi	a5,a5,-32 # ffffffffffffefe0 <__BSS_END__+0xfffffffffff9d7a8>
    e358:	97a2                	add	a5,a5,s0
    e35a:	3c07a783          	lw	a5,960(a5)
    e35e:	863a                	mv	a2,a4
    e360:	85be                	mv	a1,a5
    e362:	00023517          	auipc	a0,0x23
    e366:	f0e50513          	addi	a0,a0,-242 # 31270 <__clzdi2+0x1058>
    e36a:	c65fe0ef          	jal	ra,cfce <t_printf>
		st = (mbstate_t){0};
    e36e:	77fd                	lui	a5,0xfffff
    e370:	1781                	addi	a5,a5,-32 # ffffffffffffefe0 <__BSS_END__+0xfffffffffff9d7a8>
    e372:	97a2                	add	a5,a5,s0
    e374:	3c07b823          	sd	zero,976(a5)
		if (wcrtomb(s, i, &st) != -1  && ni_errors++ < 50)
    e378:	77fd                	lui	a5,0xfffff
    e37a:	3d078793          	addi	a5,a5,976 # fffffffffffff3d0 <__BSS_END__+0xfffffffffff9db98>
    e37e:	1781                	addi	a5,a5,-32
    e380:	008786b3          	add	a3,a5,s0
    e384:	77fd                	lui	a5,0xfffff
    e386:	1781                	addi	a5,a5,-32 # ffffffffffffefe0 <__BSS_END__+0xfffffffffff9d7a8>
    e388:	97a2                	add	a5,a5,s0
    e38a:	3c07a703          	lw	a4,960(a5)
    e38e:	bd840793          	addi	a5,s0,-1064
    e392:	8636                	mv	a2,a3
    e394:	85ba                	mv	a1,a4
    e396:	853e                	mv	a0,a5
    e398:	8f8fe0ef          	jal	ra,c490 <wcrtomb@plt>
    e39c:	872a                	mv	a4,a0
    e39e:	57fd                	li	a5,-1
    e3a0:	04f70163          	beq	a4,a5,e3e2 <clocale_mbfuncs_main+0x42a>
    e3a4:	77fd                	lui	a5,0xfffff
    e3a6:	1781                	addi	a5,a5,-32 # ffffffffffffefe0 <__BSS_END__+0xfffffffffff9d7a8>
    e3a8:	97a2                	add	a5,a5,s0
    e3aa:	3c87a783          	lw	a5,968(a5)
    e3ae:	777d                	lui	a4,0xfffff
    e3b0:	1701                	addi	a4,a4,-32 # ffffffffffffefe0 <__BSS_END__+0xfffffffffff9d7a8>
    e3b2:	9722                	add	a4,a4,s0
    e3b4:	0017869b          	addiw	a3,a5,1
    e3b8:	3cd72423          	sw	a3,968(a4)
    e3bc:	873e                	mv	a4,a5
    e3be:	03100793          	li	a5,49
    e3c2:	02e7c063          	blt	a5,a4,e3e2 <clocale_mbfuncs_main+0x42a>
			t_error("wcrtomb accepted non-image wchar_t %.4x\n", i);
    e3c6:	77fd                	lui	a5,0xfffff
    e3c8:	1781                	addi	a5,a5,-32 # ffffffffffffefe0 <__BSS_END__+0xfffffffffff9d7a8>
    e3ca:	97a2                	add	a5,a5,s0
    e3cc:	3c07a783          	lw	a5,960(a5)
    e3d0:	85be                	mv	a1,a5
    e3d2:	00023517          	auipc	a0,0x23
    e3d6:	efe50513          	addi	a0,a0,-258 # 312d0 <__clzdi2+0x10b8>
    e3da:	bf5fe0ef          	jal	ra,cfce <t_printf>
    e3de:	a011                	j	e3e2 <clocale_mbfuncs_main+0x42a>
		if (wcschr(map+1, i)) continue;
    e3e0:	0001                	nop
	for (i=0; i<0x110000; i++) {
    e3e2:	77fd                	lui	a5,0xfffff
    e3e4:	1781                	addi	a5,a5,-32 # ffffffffffffefe0 <__BSS_END__+0xfffffffffff9d7a8>
    e3e6:	97a2                	add	a5,a5,s0
    e3e8:	777d                	lui	a4,0xfffff
    e3ea:	1701                	addi	a4,a4,-32 # ffffffffffffefe0 <__BSS_END__+0xfffffffffff9d7a8>
    e3ec:	9722                	add	a4,a4,s0
    e3ee:	3c072703          	lw	a4,960(a4)
    e3f2:	2705                	addiw	a4,a4,1
    e3f4:	3ce7a023          	sw	a4,960(a5)
    e3f8:	77fd                	lui	a5,0xfffff
    e3fa:	1781                	addi	a5,a5,-32 # ffffffffffffefe0 <__BSS_END__+0xfffffffffff9d7a8>
    e3fc:	97a2                	add	a5,a5,s0
    e3fe:	3c07a783          	lw	a5,960(a5)
    e402:	0007871b          	sext.w	a4,a5
    e406:	001107b7          	lui	a5,0x110
    e40a:	ecf745e3          	blt	a4,a5,e2d4 <clocale_mbfuncs_main+0x31c>
	}
	if (ni_errors > 50)
    e40e:	77fd                	lui	a5,0xfffff
    e410:	1781                	addi	a5,a5,-32 # ffffffffffffefe0 <__BSS_END__+0xfffffffffff9d7a8>
    e412:	97a2                	add	a5,a5,s0
    e414:	3c87a783          	lw	a5,968(a5)
    e418:	0007871b          	sext.w	a4,a5
    e41c:	03200793          	li	a5,50
    e420:	00e7de63          	bge	a5,a4,e43c <clocale_mbfuncs_main+0x484>
		t_error("additional %d non-image errors (not printed)\n", ni_errors);
    e424:	77fd                	lui	a5,0xfffff
    e426:	1781                	addi	a5,a5,-32 # ffffffffffffefe0 <__BSS_END__+0xfffffffffff9d7a8>
    e428:	97a2                	add	a5,a5,s0
    e42a:	3c87a783          	lw	a5,968(a5)
    e42e:	85be                	mv	a1,a5
    e430:	00023517          	auipc	a0,0x23
    e434:	ef050513          	addi	a0,a0,-272 # 31320 <__clzdi2+0x1108>
    e438:	b97fe0ef          	jal	ra,cfce <t_printf>

	map[256] = 0;
    e43c:	77fd                	lui	a5,0xfffff
    e43e:	1781                	addi	a5,a5,-32 # ffffffffffffefe0 <__BSS_END__+0xfffffffffff9d7a8>
    e440:	97a2                	add	a5,a5,s0
    e442:	7e07a423          	sw	zero,2024(a5)
	st = (mbstate_t){0};
    e446:	77fd                	lui	a5,0xfffff
    e448:	1781                	addi	a5,a5,-32 # ffffffffffffefe0 <__BSS_END__+0xfffffffffff9d7a8>
    e44a:	97a2                	add	a5,a5,s0
    e44c:	3c07b823          	sd	zero,976(a5)
	if ((rv=wcsrtombs(s, &(const wchar_t *){map+1}, sizeof s, &st)) != 255)
    e450:	77fd                	lui	a5,0xfffff
    e452:	3e878793          	addi	a5,a5,1000 # fffffffffffff3e8 <__BSS_END__+0xfffffffffff9dbb0>
    e456:	1781                	addi	a5,a5,-32
    e458:	97a2                	add	a5,a5,s0
    e45a:	0791                	addi	a5,a5,4
    e45c:	777d                	lui	a4,0xfffff
    e45e:	1701                	addi	a4,a4,-32 # ffffffffffffefe0 <__BSS_END__+0xfffffffffff9d7a8>
    e460:	9722                	add	a4,a4,s0
    e462:	3cf73c23          	sd	a5,984(a4)
    e466:	77fd                	lui	a5,0xfffff
    e468:	1781                	addi	a5,a5,-32 # ffffffffffffefe0 <__BSS_END__+0xfffffffffff9d7a8>
    e46a:	008784b3          	add	s1,a5,s0
    e46e:	77fd                	lui	a5,0xfffff
    e470:	3d078793          	addi	a5,a5,976 # fffffffffffff3d0 <__BSS_END__+0xfffffffffff9db98>
    e474:	1781                	addi	a5,a5,-32
    e476:	008786b3          	add	a3,a5,s0
    e47a:	77fd                	lui	a5,0xfffff
    e47c:	3d878793          	addi	a5,a5,984 # fffffffffffff3d8 <__BSS_END__+0xfffffffffff9dba0>
    e480:	1781                	addi	a5,a5,-32
    e482:	00878733          	add	a4,a5,s0
    e486:	bd840793          	addi	a5,s0,-1064
    e48a:	40000613          	li	a2,1024
    e48e:	85ba                	mv	a1,a4
    e490:	853e                	mv	a0,a5
    e492:	8cffd0ef          	jal	ra,bd60 <wcsrtombs@plt>
    e496:	3ea4b023          	sd	a0,992(s1)
    e49a:	77fd                	lui	a5,0xfffff
    e49c:	1781                	addi	a5,a5,-32 # ffffffffffffefe0 <__BSS_END__+0xfffffffffff9d7a8>
    e49e:	97a2                	add	a5,a5,s0
    e4a0:	3e07b703          	ld	a4,992(a5)
    e4a4:	0ff00793          	li	a5,255
    e4a8:	00f70d63          	beq	a4,a5,e4c2 <clocale_mbfuncs_main+0x50a>
		t_error("wcsrtombs returned %zd, expected 255\n", rv);
    e4ac:	77fd                	lui	a5,0xfffff
    e4ae:	1781                	addi	a5,a5,-32 # ffffffffffffefe0 <__BSS_END__+0xfffffffffff9d7a8>
    e4b0:	97a2                	add	a5,a5,s0
    e4b2:	3e07b583          	ld	a1,992(a5)
    e4b6:	00023517          	auipc	a0,0x23
    e4ba:	ec250513          	addi	a0,a0,-318 # 31378 <__clzdi2+0x1160>
    e4be:	b11fe0ef          	jal	ra,cfce <t_printf>
	if ((rv=mbsrtowcs(wtmp, &(const char *){s}, 256, &st)) != 255)
    e4c2:	77fd                	lui	a5,0xfffff
    e4c4:	1781                	addi	a5,a5,-32 # ffffffffffffefe0 <__BSS_END__+0xfffffffffff9d7a8>
    e4c6:	97a2                	add	a5,a5,s0
    e4c8:	bd840713          	addi	a4,s0,-1064
    e4cc:	3ce7bc23          	sd	a4,984(a5)
    e4d0:	77fd                	lui	a5,0xfffff
    e4d2:	1781                	addi	a5,a5,-32 # ffffffffffffefe0 <__BSS_END__+0xfffffffffff9d7a8>
    e4d4:	008784b3          	add	s1,a5,s0
    e4d8:	77fd                	lui	a5,0xfffff
    e4da:	3d078793          	addi	a5,a5,976 # fffffffffffff3d0 <__BSS_END__+0xfffffffffff9db98>
    e4de:	1781                	addi	a5,a5,-32
    e4e0:	008786b3          	add	a3,a5,s0
    e4e4:	77fd                	lui	a5,0xfffff
    e4e6:	3d878793          	addi	a5,a5,984 # fffffffffffff3d8 <__BSS_END__+0xfffffffffff9dba0>
    e4ea:	1781                	addi	a5,a5,-32
    e4ec:	00878733          	add	a4,a5,s0
    e4f0:	77fd                	lui	a5,0xfffff
    e4f2:	7f078793          	addi	a5,a5,2032 # fffffffffffff7f0 <__BSS_END__+0xfffffffffff9dfb8>
    e4f6:	1781                	addi	a5,a5,-32
    e4f8:	97a2                	add	a5,a5,s0
    e4fa:	10000613          	li	a2,256
    e4fe:	85ba                	mv	a1,a4
    e500:	853e                	mv	a0,a5
    e502:	a7ffd0ef          	jal	ra,bf80 <mbsrtowcs@plt>
    e506:	3ea4b023          	sd	a0,992(s1)
    e50a:	77fd                	lui	a5,0xfffff
    e50c:	1781                	addi	a5,a5,-32 # ffffffffffffefe0 <__BSS_END__+0xfffffffffff9d7a8>
    e50e:	97a2                	add	a5,a5,s0
    e510:	3e07b703          	ld	a4,992(a5)
    e514:	0ff00793          	li	a5,255
    e518:	00f70d63          	beq	a4,a5,e532 <clocale_mbfuncs_main+0x57a>
		t_error("mbsrtowcs returned %zd, expected 255\n", rv);
    e51c:	77fd                	lui	a5,0xfffff
    e51e:	1781                	addi	a5,a5,-32 # ffffffffffffefe0 <__BSS_END__+0xfffffffffff9d7a8>
    e520:	97a2                	add	a5,a5,s0
    e522:	3e07b583          	ld	a1,992(a5)
    e526:	00023517          	auipc	a0,0x23
    e52a:	ea250513          	addi	a0,a0,-350 # 313c8 <__clzdi2+0x11b0>
    e52e:	aa1fe0ef          	jal	ra,cfce <t_printf>
	if (memcmp(map+1, wtmp, 256*sizeof(*map)))
    e532:	77fd                	lui	a5,0xfffff
    e534:	3e878793          	addi	a5,a5,1000 # fffffffffffff3e8 <__BSS_END__+0xfffffffffff9dbb0>
    e538:	1781                	addi	a5,a5,-32
    e53a:	97a2                	add	a5,a5,s0
    e53c:	0791                	addi	a5,a5,4
    e53e:	777d                	lui	a4,0xfffff
    e540:	7f070713          	addi	a4,a4,2032 # fffffffffffff7f0 <__BSS_END__+0xfffffffffff9dfb8>
    e544:	1701                	addi	a4,a4,-32
    e546:	9722                	add	a4,a4,s0
    e548:	40000613          	li	a2,1024
    e54c:	85ba                	mv	a1,a4
    e54e:	853e                	mv	a0,a5
    e550:	8c1fd0ef          	jal	ra,be10 <memcmp@plt>
    e554:	87aa                	mv	a5,a0
    e556:	c799                	beqz	a5,e564 <clocale_mbfuncs_main+0x5ac>
		t_error("wcsrtombs/mbsrtowcs round trip failed\n");
    e558:	00023517          	auipc	a0,0x23
    e55c:	ec050513          	addi	a0,a0,-320 # 31418 <__clzdi2+0x1200>
    e560:	a6ffe0ef          	jal	ra,cfce <t_printf>

	for (i=128; i<256; i++) {
    e564:	77fd                	lui	a5,0xfffff
    e566:	1781                	addi	a5,a5,-32 # ffffffffffffefe0 <__BSS_END__+0xfffffffffff9d7a8>
    e568:	97a2                	add	a5,a5,s0
    e56a:	08000713          	li	a4,128
    e56e:	3ce7a023          	sw	a4,960(a5)
    e572:	a991                	j	e9c6 <clocale_mbfuncs_main+0xa0e>
		if (iswalnum(map[i])) t_error("iswalnum returned true for %.4x (%.2x)\n", map[i], i);
    e574:	77fd                	lui	a5,0xfffff
    e576:	1781                	addi	a5,a5,-32 # ffffffffffffefe0 <__BSS_END__+0xfffffffffff9d7a8>
    e578:	00878733          	add	a4,a5,s0
    e57c:	77fd                	lui	a5,0xfffff
    e57e:	1781                	addi	a5,a5,-32 # ffffffffffffefe0 <__BSS_END__+0xfffffffffff9d7a8>
    e580:	97a2                	add	a5,a5,s0
    e582:	3c07a783          	lw	a5,960(a5)
    e586:	078a                	slli	a5,a5,0x2
    e588:	97ba                	add	a5,a5,a4
    e58a:	3e87a783          	lw	a5,1000(a5)
    e58e:	2781                	sext.w	a5,a5
    e590:	853e                	mv	a0,a5
    e592:	d9ffd0ef          	jal	ra,c330 <iswalnum@plt>
    e596:	87aa                	mv	a5,a0
    e598:	cb9d                	beqz	a5,e5ce <clocale_mbfuncs_main+0x616>
    e59a:	77fd                	lui	a5,0xfffff
    e59c:	1781                	addi	a5,a5,-32 # ffffffffffffefe0 <__BSS_END__+0xfffffffffff9d7a8>
    e59e:	00878733          	add	a4,a5,s0
    e5a2:	77fd                	lui	a5,0xfffff
    e5a4:	1781                	addi	a5,a5,-32 # ffffffffffffefe0 <__BSS_END__+0xfffffffffff9d7a8>
    e5a6:	97a2                	add	a5,a5,s0
    e5a8:	3c07a783          	lw	a5,960(a5)
    e5ac:	078a                	slli	a5,a5,0x2
    e5ae:	97ba                	add	a5,a5,a4
    e5b0:	3e87a703          	lw	a4,1000(a5)
    e5b4:	77fd                	lui	a5,0xfffff
    e5b6:	1781                	addi	a5,a5,-32 # ffffffffffffefe0 <__BSS_END__+0xfffffffffff9d7a8>
    e5b8:	97a2                	add	a5,a5,s0
    e5ba:	3c07a783          	lw	a5,960(a5)
    e5be:	863e                	mv	a2,a5
    e5c0:	85ba                	mv	a1,a4
    e5c2:	00023517          	auipc	a0,0x23
    e5c6:	ea650513          	addi	a0,a0,-346 # 31468 <__clzdi2+0x1250>
    e5ca:	a05fe0ef          	jal	ra,cfce <t_printf>
		if (iswalpha(map[i])) t_error("iswalpha returned true for %.4x (%.2x)\n", map[i], i);
    e5ce:	77fd                	lui	a5,0xfffff
    e5d0:	1781                	addi	a5,a5,-32 # ffffffffffffefe0 <__BSS_END__+0xfffffffffff9d7a8>
    e5d2:	00878733          	add	a4,a5,s0
    e5d6:	77fd                	lui	a5,0xfffff
    e5d8:	1781                	addi	a5,a5,-32 # ffffffffffffefe0 <__BSS_END__+0xfffffffffff9d7a8>
    e5da:	97a2                	add	a5,a5,s0
    e5dc:	3c07a783          	lw	a5,960(a5)
    e5e0:	078a                	slli	a5,a5,0x2
    e5e2:	97ba                	add	a5,a5,a4
    e5e4:	3e87a783          	lw	a5,1000(a5)
    e5e8:	2781                	sext.w	a5,a5
    e5ea:	853e                	mv	a0,a5
    e5ec:	934fd0ef          	jal	ra,b720 <iswalpha@plt>
    e5f0:	87aa                	mv	a5,a0
    e5f2:	cb9d                	beqz	a5,e628 <clocale_mbfuncs_main+0x670>
    e5f4:	77fd                	lui	a5,0xfffff
    e5f6:	1781                	addi	a5,a5,-32 # ffffffffffffefe0 <__BSS_END__+0xfffffffffff9d7a8>
    e5f8:	00878733          	add	a4,a5,s0
    e5fc:	77fd                	lui	a5,0xfffff
    e5fe:	1781                	addi	a5,a5,-32 # ffffffffffffefe0 <__BSS_END__+0xfffffffffff9d7a8>
    e600:	97a2                	add	a5,a5,s0
    e602:	3c07a783          	lw	a5,960(a5)
    e606:	078a                	slli	a5,a5,0x2
    e608:	97ba                	add	a5,a5,a4
    e60a:	3e87a703          	lw	a4,1000(a5)
    e60e:	77fd                	lui	a5,0xfffff
    e610:	1781                	addi	a5,a5,-32 # ffffffffffffefe0 <__BSS_END__+0xfffffffffff9d7a8>
    e612:	97a2                	add	a5,a5,s0
    e614:	3c07a783          	lw	a5,960(a5)
    e618:	863e                	mv	a2,a5
    e61a:	85ba                	mv	a1,a4
    e61c:	00023517          	auipc	a0,0x23
    e620:	e9c50513          	addi	a0,a0,-356 # 314b8 <__clzdi2+0x12a0>
    e624:	9abfe0ef          	jal	ra,cfce <t_printf>
		if (iswblank(map[i])) t_error("iswblank returned true for %.4x (%.2x)\n", map[i], i);
    e628:	77fd                	lui	a5,0xfffff
    e62a:	1781                	addi	a5,a5,-32 # ffffffffffffefe0 <__BSS_END__+0xfffffffffff9d7a8>
    e62c:	00878733          	add	a4,a5,s0
    e630:	77fd                	lui	a5,0xfffff
    e632:	1781                	addi	a5,a5,-32 # ffffffffffffefe0 <__BSS_END__+0xfffffffffff9d7a8>
    e634:	97a2                	add	a5,a5,s0
    e636:	3c07a783          	lw	a5,960(a5)
    e63a:	078a                	slli	a5,a5,0x2
    e63c:	97ba                	add	a5,a5,a4
    e63e:	3e87a783          	lw	a5,1000(a5)
    e642:	2781                	sext.w	a5,a5
    e644:	853e                	mv	a0,a5
    e646:	8eafd0ef          	jal	ra,b730 <iswblank@plt>
    e64a:	87aa                	mv	a5,a0
    e64c:	cb9d                	beqz	a5,e682 <clocale_mbfuncs_main+0x6ca>
    e64e:	77fd                	lui	a5,0xfffff
    e650:	1781                	addi	a5,a5,-32 # ffffffffffffefe0 <__BSS_END__+0xfffffffffff9d7a8>
    e652:	00878733          	add	a4,a5,s0
    e656:	77fd                	lui	a5,0xfffff
    e658:	1781                	addi	a5,a5,-32 # ffffffffffffefe0 <__BSS_END__+0xfffffffffff9d7a8>
    e65a:	97a2                	add	a5,a5,s0
    e65c:	3c07a783          	lw	a5,960(a5)
    e660:	078a                	slli	a5,a5,0x2
    e662:	97ba                	add	a5,a5,a4
    e664:	3e87a703          	lw	a4,1000(a5)
    e668:	77fd                	lui	a5,0xfffff
    e66a:	1781                	addi	a5,a5,-32 # ffffffffffffefe0 <__BSS_END__+0xfffffffffff9d7a8>
    e66c:	97a2                	add	a5,a5,s0
    e66e:	3c07a783          	lw	a5,960(a5)
    e672:	863e                	mv	a2,a5
    e674:	85ba                	mv	a1,a4
    e676:	00023517          	auipc	a0,0x23
    e67a:	e9250513          	addi	a0,a0,-366 # 31508 <__clzdi2+0x12f0>
    e67e:	951fe0ef          	jal	ra,cfce <t_printf>
		if (iswcntrl(map[i])) t_error("iswcntrl returned true for %.4x (%.2x)\n", map[i], i);
    e682:	77fd                	lui	a5,0xfffff
    e684:	1781                	addi	a5,a5,-32 # ffffffffffffefe0 <__BSS_END__+0xfffffffffff9d7a8>
    e686:	00878733          	add	a4,a5,s0
    e68a:	77fd                	lui	a5,0xfffff
    e68c:	1781                	addi	a5,a5,-32 # ffffffffffffefe0 <__BSS_END__+0xfffffffffff9d7a8>
    e68e:	97a2                	add	a5,a5,s0
    e690:	3c07a783          	lw	a5,960(a5)
    e694:	078a                	slli	a5,a5,0x2
    e696:	97ba                	add	a5,a5,a4
    e698:	3e87a783          	lw	a5,1000(a5)
    e69c:	2781                	sext.w	a5,a5
    e69e:	853e                	mv	a0,a5
    e6a0:	840fd0ef          	jal	ra,b6e0 <iswcntrl@plt>
    e6a4:	87aa                	mv	a5,a0
    e6a6:	cb9d                	beqz	a5,e6dc <clocale_mbfuncs_main+0x724>
    e6a8:	77fd                	lui	a5,0xfffff
    e6aa:	1781                	addi	a5,a5,-32 # ffffffffffffefe0 <__BSS_END__+0xfffffffffff9d7a8>
    e6ac:	00878733          	add	a4,a5,s0
    e6b0:	77fd                	lui	a5,0xfffff
    e6b2:	1781                	addi	a5,a5,-32 # ffffffffffffefe0 <__BSS_END__+0xfffffffffff9d7a8>
    e6b4:	97a2                	add	a5,a5,s0
    e6b6:	3c07a783          	lw	a5,960(a5)
    e6ba:	078a                	slli	a5,a5,0x2
    e6bc:	97ba                	add	a5,a5,a4
    e6be:	3e87a703          	lw	a4,1000(a5)
    e6c2:	77fd                	lui	a5,0xfffff
    e6c4:	1781                	addi	a5,a5,-32 # ffffffffffffefe0 <__BSS_END__+0xfffffffffff9d7a8>
    e6c6:	97a2                	add	a5,a5,s0
    e6c8:	3c07a783          	lw	a5,960(a5)
    e6cc:	863e                	mv	a2,a5
    e6ce:	85ba                	mv	a1,a4
    e6d0:	00023517          	auipc	a0,0x23
    e6d4:	e8850513          	addi	a0,a0,-376 # 31558 <__clzdi2+0x1340>
    e6d8:	8f7fe0ef          	jal	ra,cfce <t_printf>
		if (iswdigit(map[i])) t_error("iswdigit returned true for %.4x (%.2x)\n", map[i], i);
    e6dc:	77fd                	lui	a5,0xfffff
    e6de:	1781                	addi	a5,a5,-32 # ffffffffffffefe0 <__BSS_END__+0xfffffffffff9d7a8>
    e6e0:	00878733          	add	a4,a5,s0
    e6e4:	77fd                	lui	a5,0xfffff
    e6e6:	1781                	addi	a5,a5,-32 # ffffffffffffefe0 <__BSS_END__+0xfffffffffff9d7a8>
    e6e8:	97a2                	add	a5,a5,s0
    e6ea:	3c07a783          	lw	a5,960(a5)
    e6ee:	078a                	slli	a5,a5,0x2
    e6f0:	97ba                	add	a5,a5,a4
    e6f2:	3e87a783          	lw	a5,1000(a5)
    e6f6:	2781                	sext.w	a5,a5
    e6f8:	fd07879b          	addiw	a5,a5,-48
    e6fc:	2781                	sext.w	a5,a5
    e6fe:	873e                	mv	a4,a5
    e700:	47a5                	li	a5,9
    e702:	02e7ec63          	bltu	a5,a4,e73a <clocale_mbfuncs_main+0x782>
    e706:	77fd                	lui	a5,0xfffff
    e708:	1781                	addi	a5,a5,-32 # ffffffffffffefe0 <__BSS_END__+0xfffffffffff9d7a8>
    e70a:	00878733          	add	a4,a5,s0
    e70e:	77fd                	lui	a5,0xfffff
    e710:	1781                	addi	a5,a5,-32 # ffffffffffffefe0 <__BSS_END__+0xfffffffffff9d7a8>
    e712:	97a2                	add	a5,a5,s0
    e714:	3c07a783          	lw	a5,960(a5)
    e718:	078a                	slli	a5,a5,0x2
    e71a:	97ba                	add	a5,a5,a4
    e71c:	3e87a703          	lw	a4,1000(a5)
    e720:	77fd                	lui	a5,0xfffff
    e722:	1781                	addi	a5,a5,-32 # ffffffffffffefe0 <__BSS_END__+0xfffffffffff9d7a8>
    e724:	97a2                	add	a5,a5,s0
    e726:	3c07a783          	lw	a5,960(a5)
    e72a:	863e                	mv	a2,a5
    e72c:	85ba                	mv	a1,a4
    e72e:	00023517          	auipc	a0,0x23
    e732:	e7a50513          	addi	a0,a0,-390 # 315a8 <__clzdi2+0x1390>
    e736:	899fe0ef          	jal	ra,cfce <t_printf>
		if (iswgraph(map[i])) t_error("iswgraph returned true for %.4x (%.2x)\n", map[i], i);
    e73a:	77fd                	lui	a5,0xfffff
    e73c:	1781                	addi	a5,a5,-32 # ffffffffffffefe0 <__BSS_END__+0xfffffffffff9d7a8>
    e73e:	00878733          	add	a4,a5,s0
    e742:	77fd                	lui	a5,0xfffff
    e744:	1781                	addi	a5,a5,-32 # ffffffffffffefe0 <__BSS_END__+0xfffffffffff9d7a8>
    e746:	97a2                	add	a5,a5,s0
    e748:	3c07a783          	lw	a5,960(a5)
    e74c:	078a                	slli	a5,a5,0x2
    e74e:	97ba                	add	a5,a5,a4
    e750:	3e87a783          	lw	a5,1000(a5)
    e754:	2781                	sext.w	a5,a5
    e756:	853e                	mv	a0,a5
    e758:	c78fd0ef          	jal	ra,bbd0 <iswgraph@plt>
    e75c:	87aa                	mv	a5,a0
    e75e:	cb9d                	beqz	a5,e794 <clocale_mbfuncs_main+0x7dc>
    e760:	77fd                	lui	a5,0xfffff
    e762:	1781                	addi	a5,a5,-32 # ffffffffffffefe0 <__BSS_END__+0xfffffffffff9d7a8>
    e764:	00878733          	add	a4,a5,s0
    e768:	77fd                	lui	a5,0xfffff
    e76a:	1781                	addi	a5,a5,-32 # ffffffffffffefe0 <__BSS_END__+0xfffffffffff9d7a8>
    e76c:	97a2                	add	a5,a5,s0
    e76e:	3c07a783          	lw	a5,960(a5)
    e772:	078a                	slli	a5,a5,0x2
    e774:	97ba                	add	a5,a5,a4
    e776:	3e87a703          	lw	a4,1000(a5)
    e77a:	77fd                	lui	a5,0xfffff
    e77c:	1781                	addi	a5,a5,-32 # ffffffffffffefe0 <__BSS_END__+0xfffffffffff9d7a8>
    e77e:	97a2                	add	a5,a5,s0
    e780:	3c07a783          	lw	a5,960(a5)
    e784:	863e                	mv	a2,a5
    e786:	85ba                	mv	a1,a4
    e788:	00023517          	auipc	a0,0x23
    e78c:	e7050513          	addi	a0,a0,-400 # 315f8 <__clzdi2+0x13e0>
    e790:	83ffe0ef          	jal	ra,cfce <t_printf>
		if (iswlower(map[i])) t_error("iswlower returned true for %.4x (%.2x)\n", map[i], i);
    e794:	77fd                	lui	a5,0xfffff
    e796:	1781                	addi	a5,a5,-32 # ffffffffffffefe0 <__BSS_END__+0xfffffffffff9d7a8>
    e798:	00878733          	add	a4,a5,s0
    e79c:	77fd                	lui	a5,0xfffff
    e79e:	1781                	addi	a5,a5,-32 # ffffffffffffefe0 <__BSS_END__+0xfffffffffff9d7a8>
    e7a0:	97a2                	add	a5,a5,s0
    e7a2:	3c07a783          	lw	a5,960(a5)
    e7a6:	078a                	slli	a5,a5,0x2
    e7a8:	97ba                	add	a5,a5,a4
    e7aa:	3e87a783          	lw	a5,1000(a5)
    e7ae:	2781                	sext.w	a5,a5
    e7b0:	853e                	mv	a0,a5
    e7b2:	8fefd0ef          	jal	ra,b8b0 <iswlower@plt>
    e7b6:	87aa                	mv	a5,a0
    e7b8:	cb9d                	beqz	a5,e7ee <clocale_mbfuncs_main+0x836>
    e7ba:	77fd                	lui	a5,0xfffff
    e7bc:	1781                	addi	a5,a5,-32 # ffffffffffffefe0 <__BSS_END__+0xfffffffffff9d7a8>
    e7be:	00878733          	add	a4,a5,s0
    e7c2:	77fd                	lui	a5,0xfffff
    e7c4:	1781                	addi	a5,a5,-32 # ffffffffffffefe0 <__BSS_END__+0xfffffffffff9d7a8>
    e7c6:	97a2                	add	a5,a5,s0
    e7c8:	3c07a783          	lw	a5,960(a5)
    e7cc:	078a                	slli	a5,a5,0x2
    e7ce:	97ba                	add	a5,a5,a4
    e7d0:	3e87a703          	lw	a4,1000(a5)
    e7d4:	77fd                	lui	a5,0xfffff
    e7d6:	1781                	addi	a5,a5,-32 # ffffffffffffefe0 <__BSS_END__+0xfffffffffff9d7a8>
    e7d8:	97a2                	add	a5,a5,s0
    e7da:	3c07a783          	lw	a5,960(a5)
    e7de:	863e                	mv	a2,a5
    e7e0:	85ba                	mv	a1,a4
    e7e2:	00023517          	auipc	a0,0x23
    e7e6:	e6650513          	addi	a0,a0,-410 # 31648 <__clzdi2+0x1430>
    e7ea:	fe4fe0ef          	jal	ra,cfce <t_printf>
		if (iswprint(map[i])) t_error("iswprint returned true for %.4x (%.2x)\n", map[i], i);
    e7ee:	77fd                	lui	a5,0xfffff
    e7f0:	1781                	addi	a5,a5,-32 # ffffffffffffefe0 <__BSS_END__+0xfffffffffff9d7a8>
    e7f2:	00878733          	add	a4,a5,s0
    e7f6:	77fd                	lui	a5,0xfffff
    e7f8:	1781                	addi	a5,a5,-32 # ffffffffffffefe0 <__BSS_END__+0xfffffffffff9d7a8>
    e7fa:	97a2                	add	a5,a5,s0
    e7fc:	3c07a783          	lw	a5,960(a5)
    e800:	078a                	slli	a5,a5,0x2
    e802:	97ba                	add	a5,a5,a4
    e804:	3e87a783          	lw	a5,1000(a5)
    e808:	2781                	sext.w	a5,a5
    e80a:	853e                	mv	a0,a5
    e80c:	ab4fd0ef          	jal	ra,bac0 <iswprint@plt>
    e810:	87aa                	mv	a5,a0
    e812:	cb9d                	beqz	a5,e848 <clocale_mbfuncs_main+0x890>
    e814:	77fd                	lui	a5,0xfffff
    e816:	1781                	addi	a5,a5,-32 # ffffffffffffefe0 <__BSS_END__+0xfffffffffff9d7a8>
    e818:	00878733          	add	a4,a5,s0
    e81c:	77fd                	lui	a5,0xfffff
    e81e:	1781                	addi	a5,a5,-32 # ffffffffffffefe0 <__BSS_END__+0xfffffffffff9d7a8>
    e820:	97a2                	add	a5,a5,s0
    e822:	3c07a783          	lw	a5,960(a5)
    e826:	078a                	slli	a5,a5,0x2
    e828:	97ba                	add	a5,a5,a4
    e82a:	3e87a703          	lw	a4,1000(a5)
    e82e:	77fd                	lui	a5,0xfffff
    e830:	1781                	addi	a5,a5,-32 # ffffffffffffefe0 <__BSS_END__+0xfffffffffff9d7a8>
    e832:	97a2                	add	a5,a5,s0
    e834:	3c07a783          	lw	a5,960(a5)
    e838:	863e                	mv	a2,a5
    e83a:	85ba                	mv	a1,a4
    e83c:	00023517          	auipc	a0,0x23
    e840:	e5c50513          	addi	a0,a0,-420 # 31698 <__clzdi2+0x1480>
    e844:	f8afe0ef          	jal	ra,cfce <t_printf>
		if (iswpunct(map[i])) t_error("iswpunct returned true for %.4x (%.2x)\n", map[i], i);
    e848:	77fd                	lui	a5,0xfffff
    e84a:	1781                	addi	a5,a5,-32 # ffffffffffffefe0 <__BSS_END__+0xfffffffffff9d7a8>
    e84c:	00878733          	add	a4,a5,s0
    e850:	77fd                	lui	a5,0xfffff
    e852:	1781                	addi	a5,a5,-32 # ffffffffffffefe0 <__BSS_END__+0xfffffffffff9d7a8>
    e854:	97a2                	add	a5,a5,s0
    e856:	3c07a783          	lw	a5,960(a5)
    e85a:	078a                	slli	a5,a5,0x2
    e85c:	97ba                	add	a5,a5,a4
    e85e:	3e87a783          	lw	a5,1000(a5)
    e862:	2781                	sext.w	a5,a5
    e864:	853e                	mv	a0,a5
    e866:	e8bfc0ef          	jal	ra,b6f0 <iswpunct@plt>
    e86a:	87aa                	mv	a5,a0
    e86c:	cb9d                	beqz	a5,e8a2 <clocale_mbfuncs_main+0x8ea>
    e86e:	77fd                	lui	a5,0xfffff
    e870:	1781                	addi	a5,a5,-32 # ffffffffffffefe0 <__BSS_END__+0xfffffffffff9d7a8>
    e872:	00878733          	add	a4,a5,s0
    e876:	77fd                	lui	a5,0xfffff
    e878:	1781                	addi	a5,a5,-32 # ffffffffffffefe0 <__BSS_END__+0xfffffffffff9d7a8>
    e87a:	97a2                	add	a5,a5,s0
    e87c:	3c07a783          	lw	a5,960(a5)
    e880:	078a                	slli	a5,a5,0x2
    e882:	97ba                	add	a5,a5,a4
    e884:	3e87a703          	lw	a4,1000(a5)
    e888:	77fd                	lui	a5,0xfffff
    e88a:	1781                	addi	a5,a5,-32 # ffffffffffffefe0 <__BSS_END__+0xfffffffffff9d7a8>
    e88c:	97a2                	add	a5,a5,s0
    e88e:	3c07a783          	lw	a5,960(a5)
    e892:	863e                	mv	a2,a5
    e894:	85ba                	mv	a1,a4
    e896:	00023517          	auipc	a0,0x23
    e89a:	e5250513          	addi	a0,a0,-430 # 316e8 <__clzdi2+0x14d0>
    e89e:	f30fe0ef          	jal	ra,cfce <t_printf>
		if (iswspace(map[i])) t_error("iswspace returned true for %.4x (%.2x)\n", map[i], i);
    e8a2:	77fd                	lui	a5,0xfffff
    e8a4:	1781                	addi	a5,a5,-32 # ffffffffffffefe0 <__BSS_END__+0xfffffffffff9d7a8>
    e8a6:	00878733          	add	a4,a5,s0
    e8aa:	77fd                	lui	a5,0xfffff
    e8ac:	1781                	addi	a5,a5,-32 # ffffffffffffefe0 <__BSS_END__+0xfffffffffff9d7a8>
    e8ae:	97a2                	add	a5,a5,s0
    e8b0:	3c07a783          	lw	a5,960(a5)
    e8b4:	078a                	slli	a5,a5,0x2
    e8b6:	97ba                	add	a5,a5,a4
    e8b8:	3e87a783          	lw	a5,1000(a5)
    e8bc:	2781                	sext.w	a5,a5
    e8be:	853e                	mv	a0,a5
    e8c0:	830fd0ef          	jal	ra,b8f0 <iswspace@plt>
    e8c4:	87aa                	mv	a5,a0
    e8c6:	cb9d                	beqz	a5,e8fc <clocale_mbfuncs_main+0x944>
    e8c8:	77fd                	lui	a5,0xfffff
    e8ca:	1781                	addi	a5,a5,-32 # ffffffffffffefe0 <__BSS_END__+0xfffffffffff9d7a8>
    e8cc:	00878733          	add	a4,a5,s0
    e8d0:	77fd                	lui	a5,0xfffff
    e8d2:	1781                	addi	a5,a5,-32 # ffffffffffffefe0 <__BSS_END__+0xfffffffffff9d7a8>
    e8d4:	97a2                	add	a5,a5,s0
    e8d6:	3c07a783          	lw	a5,960(a5)
    e8da:	078a                	slli	a5,a5,0x2
    e8dc:	97ba                	add	a5,a5,a4
    e8de:	3e87a703          	lw	a4,1000(a5)
    e8e2:	77fd                	lui	a5,0xfffff
    e8e4:	1781                	addi	a5,a5,-32 # ffffffffffffefe0 <__BSS_END__+0xfffffffffff9d7a8>
    e8e6:	97a2                	add	a5,a5,s0
    e8e8:	3c07a783          	lw	a5,960(a5)
    e8ec:	863e                	mv	a2,a5
    e8ee:	85ba                	mv	a1,a4
    e8f0:	00023517          	auipc	a0,0x23
    e8f4:	e4850513          	addi	a0,a0,-440 # 31738 <__clzdi2+0x1520>
    e8f8:	ed6fe0ef          	jal	ra,cfce <t_printf>
		if (iswupper(map[i])) t_error("iswupper returned true for %.4x (%.2x)\n", map[i], i);
    e8fc:	77fd                	lui	a5,0xfffff
    e8fe:	1781                	addi	a5,a5,-32 # ffffffffffffefe0 <__BSS_END__+0xfffffffffff9d7a8>
    e900:	00878733          	add	a4,a5,s0
    e904:	77fd                	lui	a5,0xfffff
    e906:	1781                	addi	a5,a5,-32 # ffffffffffffefe0 <__BSS_END__+0xfffffffffff9d7a8>
    e908:	97a2                	add	a5,a5,s0
    e90a:	3c07a783          	lw	a5,960(a5)
    e90e:	078a                	slli	a5,a5,0x2
    e910:	97ba                	add	a5,a5,a4
    e912:	3e87a783          	lw	a5,1000(a5)
    e916:	2781                	sext.w	a5,a5
    e918:	853e                	mv	a0,a5
    e91a:	8f7fd0ef          	jal	ra,c210 <iswupper@plt>
    e91e:	87aa                	mv	a5,a0
    e920:	cb9d                	beqz	a5,e956 <clocale_mbfuncs_main+0x99e>
    e922:	77fd                	lui	a5,0xfffff
    e924:	1781                	addi	a5,a5,-32 # ffffffffffffefe0 <__BSS_END__+0xfffffffffff9d7a8>
    e926:	00878733          	add	a4,a5,s0
    e92a:	77fd                	lui	a5,0xfffff
    e92c:	1781                	addi	a5,a5,-32 # ffffffffffffefe0 <__BSS_END__+0xfffffffffff9d7a8>
    e92e:	97a2                	add	a5,a5,s0
    e930:	3c07a783          	lw	a5,960(a5)
    e934:	078a                	slli	a5,a5,0x2
    e936:	97ba                	add	a5,a5,a4
    e938:	3e87a703          	lw	a4,1000(a5)
    e93c:	77fd                	lui	a5,0xfffff
    e93e:	1781                	addi	a5,a5,-32 # ffffffffffffefe0 <__BSS_END__+0xfffffffffff9d7a8>
    e940:	97a2                	add	a5,a5,s0
    e942:	3c07a783          	lw	a5,960(a5)
    e946:	863e                	mv	a2,a5
    e948:	85ba                	mv	a1,a4
    e94a:	00023517          	auipc	a0,0x23
    e94e:	e3e50513          	addi	a0,a0,-450 # 31788 <__clzdi2+0x1570>
    e952:	e7cfe0ef          	jal	ra,cfce <t_printf>
		if (iswxdigit(map[i])) t_error("iswxdigit returned true for %.4x (%.2x)\n", map[i], i);
    e956:	77fd                	lui	a5,0xfffff
    e958:	1781                	addi	a5,a5,-32 # ffffffffffffefe0 <__BSS_END__+0xfffffffffff9d7a8>
    e95a:	00878733          	add	a4,a5,s0
    e95e:	77fd                	lui	a5,0xfffff
    e960:	1781                	addi	a5,a5,-32 # ffffffffffffefe0 <__BSS_END__+0xfffffffffff9d7a8>
    e962:	97a2                	add	a5,a5,s0
    e964:	3c07a783          	lw	a5,960(a5)
    e968:	078a                	slli	a5,a5,0x2
    e96a:	97ba                	add	a5,a5,a4
    e96c:	3e87a783          	lw	a5,1000(a5)
    e970:	2781                	sext.w	a5,a5
    e972:	853e                	mv	a0,a5
    e974:	e6dfc0ef          	jal	ra,b7e0 <iswxdigit@plt>
    e978:	87aa                	mv	a5,a0
    e97a:	cb9d                	beqz	a5,e9b0 <clocale_mbfuncs_main+0x9f8>
    e97c:	77fd                	lui	a5,0xfffff
    e97e:	1781                	addi	a5,a5,-32 # ffffffffffffefe0 <__BSS_END__+0xfffffffffff9d7a8>
    e980:	00878733          	add	a4,a5,s0
    e984:	77fd                	lui	a5,0xfffff
    e986:	1781                	addi	a5,a5,-32 # ffffffffffffefe0 <__BSS_END__+0xfffffffffff9d7a8>
    e988:	97a2                	add	a5,a5,s0
    e98a:	3c07a783          	lw	a5,960(a5)
    e98e:	078a                	slli	a5,a5,0x2
    e990:	97ba                	add	a5,a5,a4
    e992:	3e87a703          	lw	a4,1000(a5)
    e996:	77fd                	lui	a5,0xfffff
    e998:	1781                	addi	a5,a5,-32 # ffffffffffffefe0 <__BSS_END__+0xfffffffffff9d7a8>
    e99a:	97a2                	add	a5,a5,s0
    e99c:	3c07a783          	lw	a5,960(a5)
    e9a0:	863e                	mv	a2,a5
    e9a2:	85ba                	mv	a1,a4
    e9a4:	00023517          	auipc	a0,0x23
    e9a8:	e3450513          	addi	a0,a0,-460 # 317d8 <__clzdi2+0x15c0>
    e9ac:	e22fe0ef          	jal	ra,cfce <t_printf>
	for (i=128; i<256; i++) {
    e9b0:	77fd                	lui	a5,0xfffff
    e9b2:	1781                	addi	a5,a5,-32 # ffffffffffffefe0 <__BSS_END__+0xfffffffffff9d7a8>
    e9b4:	97a2                	add	a5,a5,s0
    e9b6:	777d                	lui	a4,0xfffff
    e9b8:	1701                	addi	a4,a4,-32 # ffffffffffffefe0 <__BSS_END__+0xfffffffffff9d7a8>
    e9ba:	9722                	add	a4,a4,s0
    e9bc:	3c072703          	lw	a4,960(a4)
    e9c0:	2705                	addiw	a4,a4,1
    e9c2:	3ce7a023          	sw	a4,960(a5)
    e9c6:	77fd                	lui	a5,0xfffff
    e9c8:	1781                	addi	a5,a5,-32 # ffffffffffffefe0 <__BSS_END__+0xfffffffffff9d7a8>
    e9ca:	97a2                	add	a5,a5,s0
    e9cc:	3c07a783          	lw	a5,960(a5)
    e9d0:	0007871b          	sext.w	a4,a5
    e9d4:	0ff00793          	li	a5,255
    e9d8:	b8e7dee3          	bge	a5,a4,e574 <clocale_mbfuncs_main+0x5bc>
	}

	return t_status;
    e9dc:	0004f797          	auipc	a5,0x4f
    e9e0:	6747b783          	ld	a5,1652(a5) # 5e050 <_GLOBAL_OFFSET_TABLE_+0x8>
    e9e4:	439c                	lw	a5,0(a5)
    e9e6:	2781                	sext.w	a5,a5
}
    e9e8:	873e                	mv	a4,a5
    e9ea:	0004f797          	auipc	a5,0x4f
    e9ee:	6767b783          	ld	a5,1654(a5) # 5e060 <__stack_chk_guard>
    e9f2:	fd843683          	ld	a3,-40(s0)
    e9f6:	639c                	ld	a5,0(a5)
    e9f8:	8fb5                	xor	a5,a5,a3
    e9fa:	4681                	li	a3,0
    e9fc:	c399                	beqz	a5,ea02 <clocale_mbfuncs_main+0xa4a>
    e9fe:	882fd0ef          	jal	ra,ba80 <__stack_chk_fail@plt>
    ea02:	853a                	mv	a0,a4
    ea04:	48010113          	addi	sp,sp,1152
    ea08:	7e813083          	ld	ra,2024(sp)
    ea0c:	7e013403          	ld	s0,2016(sp)
    ea10:	7d813483          	ld	s1,2008(sp)
    ea14:	7f010113          	addi	sp,sp,2032
    ea18:	8082                	ret

000000000000ea1a <clock_gettime_main>:

#define TEST(c, ...) \
	( (c) || (t_error(#c " failed: " __VA_ARGS__),0) )

int main()
{
    ea1a:	7179                	addi	sp,sp,-48
    ea1c:	f406                	sd	ra,40(sp)
    ea1e:	f022                	sd	s0,32(sp)
    ea20:	1800                	addi	s0,sp,48
    ea22:	0004f797          	auipc	a5,0x4f
    ea26:	63e7b783          	ld	a5,1598(a5) # 5e060 <__stack_chk_guard>
    ea2a:	6398                	ld	a4,0(a5)
    ea2c:	fee43423          	sd	a4,-24(s0)
    ea30:	4701                	li	a4,0
	struct timespec ts;
	TEST(clock_gettime(CLOCK_REALTIME, &ts) == 0 && errno == 0, "%s\n", strerror(errno));
    ea32:	fd840793          	addi	a5,s0,-40
    ea36:	85be                	mv	a1,a5
    ea38:	4501                	li	a0,0
    ea3a:	a77fc0ef          	jal	ra,b4b0 <clock_gettime@plt>
    ea3e:	87aa                	mv	a5,a0
    ea40:	e791                	bnez	a5,ea4c <clock_gettime_main+0x32>
    ea42:	8bffd0ef          	jal	ra,c300 <__errno_location@plt>
    ea46:	87aa                	mv	a5,a0
    ea48:	439c                	lw	a5,0(a5)
    ea4a:	c385                	beqz	a5,ea6a <clock_gettime_main+0x50>
    ea4c:	8b5fd0ef          	jal	ra,c300 <__errno_location@plt>
    ea50:	87aa                	mv	a5,a0
    ea52:	439c                	lw	a5,0(a5)
    ea54:	853e                	mv	a0,a5
    ea56:	babfc0ef          	jal	ra,b600 <strerror@plt>
    ea5a:	87aa                	mv	a5,a0
    ea5c:	85be                	mv	a1,a5
    ea5e:	00023517          	auipc	a0,0x23
    ea62:	dca50513          	addi	a0,a0,-566 # 31828 <__clzdi2+0x1610>
    ea66:	d68fe0ef          	jal	ra,cfce <t_printf>
	return t_status;
    ea6a:	0004f797          	auipc	a5,0x4f
    ea6e:	5e67b783          	ld	a5,1510(a5) # 5e050 <_GLOBAL_OFFSET_TABLE_+0x8>
    ea72:	439c                	lw	a5,0(a5)
    ea74:	2781                	sext.w	a5,a5
}
    ea76:	873e                	mv	a4,a5
    ea78:	0004f797          	auipc	a5,0x4f
    ea7c:	5e87b783          	ld	a5,1512(a5) # 5e060 <__stack_chk_guard>
    ea80:	fe843683          	ld	a3,-24(s0)
    ea84:	639c                	ld	a5,0(a5)
    ea86:	8fb5                	xor	a5,a5,a3
    ea88:	4681                	li	a3,0
    ea8a:	c399                	beqz	a5,ea90 <clock_gettime_main+0x76>
    ea8c:	ff5fc0ef          	jal	ra,ba80 <__stack_chk_fail@plt>
    ea90:	853a                	mv	a0,a4
    ea92:	70a2                	ld	ra,40(sp)
    ea94:	7402                	ld	s0,32(sp)
    ea96:	6145                	addi	sp,sp,48
    ea98:	8082                	ret

000000000000ea9a <crypt_main>:
#define T(h,s,k) p = crypt(k,s); \
 if (!p) p ="*"; \
 if (strcmp(p,h)!=0) t_error("crypt(%s, \"%s\") failed: got \"%s\" want \"%s\"\n", #k, s, p, h);

int main()
{
    ea9a:	1141                	addi	sp,sp,-16
    ea9c:	e406                	sd	ra,8(sp)
    ea9e:	e022                	sd	s0,0(sp)
    eaa0:	0800                	addi	s0,sp,16

/* md5 */
T("$1$abcd0123$9Qcg8DyviekV3tDGMZynJ1", "$1$abcd0123$", "Xy01@#\x01\x02\x80\x7f\xff\r\n\x81\t !")
    eaa2:	00023597          	auipc	a1,0x23
    eaa6:	dee58593          	addi	a1,a1,-530 # 31890 <__clzdi2+0x1678>
    eaaa:	00023517          	auipc	a0,0x23
    eaae:	df650513          	addi	a0,a0,-522 # 318a0 <__clzdi2+0x1688>
    eab2:	b7efd0ef          	jal	ra,be30 <crypt@plt>
    eab6:	872a                	mv	a4,a0
    eab8:	0004f797          	auipc	a5,0x4f
    eabc:	72078793          	addi	a5,a5,1824 # 5e1d8 <p>
    eac0:	e398                	sd	a4,0(a5)
    eac2:	0004f797          	auipc	a5,0x4f
    eac6:	71678793          	addi	a5,a5,1814 # 5e1d8 <p>
    eaca:	639c                	ld	a5,0(a5)
    eacc:	eb91                	bnez	a5,eae0 <crypt_main+0x46>
    eace:	0004f797          	auipc	a5,0x4f
    ead2:	70a78793          	addi	a5,a5,1802 # 5e1d8 <p>
    ead6:	00023717          	auipc	a4,0x23
    eada:	de270713          	addi	a4,a4,-542 # 318b8 <__clzdi2+0x16a0>
    eade:	e398                	sd	a4,0(a5)
    eae0:	0004f797          	auipc	a5,0x4f
    eae4:	6f878793          	addi	a5,a5,1784 # 5e1d8 <p>
    eae8:	639c                	ld	a5,0(a5)
    eaea:	00023597          	auipc	a1,0x23
    eaee:	dd658593          	addi	a1,a1,-554 # 318c0 <__clzdi2+0x16a8>
    eaf2:	853e                	mv	a0,a5
    eaf4:	d6cfd0ef          	jal	ra,c060 <strcmp@plt>
    eaf8:	87aa                	mv	a5,a0
    eafa:	cb8d                	beqz	a5,eb2c <crypt_main+0x92>
    eafc:	0004f797          	auipc	a5,0x4f
    eb00:	6dc78793          	addi	a5,a5,1756 # 5e1d8 <p>
    eb04:	639c                	ld	a5,0(a5)
    eb06:	00023717          	auipc	a4,0x23
    eb0a:	dba70713          	addi	a4,a4,-582 # 318c0 <__clzdi2+0x16a8>
    eb0e:	86be                	mv	a3,a5
    eb10:	00023617          	auipc	a2,0x23
    eb14:	d8060613          	addi	a2,a2,-640 # 31890 <__clzdi2+0x1678>
    eb18:	00023597          	auipc	a1,0x23
    eb1c:	dd058593          	addi	a1,a1,-560 # 318e8 <__clzdi2+0x16d0>
    eb20:	00023517          	auipc	a0,0x23
    eb24:	df850513          	addi	a0,a0,-520 # 31918 <__clzdi2+0x1700>
    eb28:	ca6fe0ef          	jal	ra,cfce <t_printf>
T("$1$$qRPK7m23GJusamGpoGLby/", "$1$$", "")
    eb2c:	00023597          	auipc	a1,0x23
    eb30:	e3458593          	addi	a1,a1,-460 # 31960 <__clzdi2+0x1748>
    eb34:	00023517          	auipc	a0,0x23
    eb38:	e3450513          	addi	a0,a0,-460 # 31968 <__clzdi2+0x1750>
    eb3c:	af4fd0ef          	jal	ra,be30 <crypt@plt>
    eb40:	872a                	mv	a4,a0
    eb42:	0004f797          	auipc	a5,0x4f
    eb46:	69678793          	addi	a5,a5,1686 # 5e1d8 <p>
    eb4a:	e398                	sd	a4,0(a5)
    eb4c:	0004f797          	auipc	a5,0x4f
    eb50:	68c78793          	addi	a5,a5,1676 # 5e1d8 <p>
    eb54:	639c                	ld	a5,0(a5)
    eb56:	eb91                	bnez	a5,eb6a <crypt_main+0xd0>
    eb58:	0004f797          	auipc	a5,0x4f
    eb5c:	68078793          	addi	a5,a5,1664 # 5e1d8 <p>
    eb60:	00023717          	auipc	a4,0x23
    eb64:	d5870713          	addi	a4,a4,-680 # 318b8 <__clzdi2+0x16a0>
    eb68:	e398                	sd	a4,0(a5)
    eb6a:	0004f797          	auipc	a5,0x4f
    eb6e:	66e78793          	addi	a5,a5,1646 # 5e1d8 <p>
    eb72:	639c                	ld	a5,0(a5)
    eb74:	00023597          	auipc	a1,0x23
    eb78:	dfc58593          	addi	a1,a1,-516 # 31970 <__clzdi2+0x1758>
    eb7c:	853e                	mv	a0,a5
    eb7e:	ce2fd0ef          	jal	ra,c060 <strcmp@plt>
    eb82:	87aa                	mv	a5,a0
    eb84:	cb8d                	beqz	a5,ebb6 <crypt_main+0x11c>
    eb86:	0004f797          	auipc	a5,0x4f
    eb8a:	65278793          	addi	a5,a5,1618 # 5e1d8 <p>
    eb8e:	639c                	ld	a5,0(a5)
    eb90:	00023717          	auipc	a4,0x23
    eb94:	de070713          	addi	a4,a4,-544 # 31970 <__clzdi2+0x1758>
    eb98:	86be                	mv	a3,a5
    eb9a:	00023617          	auipc	a2,0x23
    eb9e:	dc660613          	addi	a2,a2,-570 # 31960 <__clzdi2+0x1748>
    eba2:	00023597          	auipc	a1,0x23
    eba6:	dee58593          	addi	a1,a1,-530 # 31990 <__clzdi2+0x1778>
    ebaa:	00023517          	auipc	a0,0x23
    ebae:	dee50513          	addi	a0,a0,-530 # 31998 <__clzdi2+0x1780>
    ebb2:	c1cfe0ef          	jal	ra,cfce <t_printf>
T("$1$salt$UsdFqFVB.FsuinRDK5eE..", "$1$salt$", "")
    ebb6:	00023597          	auipc	a1,0x23
    ebba:	e2a58593          	addi	a1,a1,-470 # 319e0 <__clzdi2+0x17c8>
    ebbe:	00023517          	auipc	a0,0x23
    ebc2:	daa50513          	addi	a0,a0,-598 # 31968 <__clzdi2+0x1750>
    ebc6:	a6afd0ef          	jal	ra,be30 <crypt@plt>
    ebca:	872a                	mv	a4,a0
    ebcc:	0004f797          	auipc	a5,0x4f
    ebd0:	60c78793          	addi	a5,a5,1548 # 5e1d8 <p>
    ebd4:	e398                	sd	a4,0(a5)
    ebd6:	0004f797          	auipc	a5,0x4f
    ebda:	60278793          	addi	a5,a5,1538 # 5e1d8 <p>
    ebde:	639c                	ld	a5,0(a5)
    ebe0:	eb91                	bnez	a5,ebf4 <crypt_main+0x15a>
    ebe2:	0004f797          	auipc	a5,0x4f
    ebe6:	5f678793          	addi	a5,a5,1526 # 5e1d8 <p>
    ebea:	00023717          	auipc	a4,0x23
    ebee:	cce70713          	addi	a4,a4,-818 # 318b8 <__clzdi2+0x16a0>
    ebf2:	e398                	sd	a4,0(a5)
    ebf4:	0004f797          	auipc	a5,0x4f
    ebf8:	5e478793          	addi	a5,a5,1508 # 5e1d8 <p>
    ebfc:	639c                	ld	a5,0(a5)
    ebfe:	00023597          	auipc	a1,0x23
    ec02:	df258593          	addi	a1,a1,-526 # 319f0 <__clzdi2+0x17d8>
    ec06:	853e                	mv	a0,a5
    ec08:	c58fd0ef          	jal	ra,c060 <strcmp@plt>
    ec0c:	87aa                	mv	a5,a0
    ec0e:	cb8d                	beqz	a5,ec40 <crypt_main+0x1a6>
    ec10:	0004f797          	auipc	a5,0x4f
    ec14:	5c878793          	addi	a5,a5,1480 # 5e1d8 <p>
    ec18:	639c                	ld	a5,0(a5)
    ec1a:	00023717          	auipc	a4,0x23
    ec1e:	dd670713          	addi	a4,a4,-554 # 319f0 <__clzdi2+0x17d8>
    ec22:	86be                	mv	a3,a5
    ec24:	00023617          	auipc	a2,0x23
    ec28:	dbc60613          	addi	a2,a2,-580 # 319e0 <__clzdi2+0x17c8>
    ec2c:	00023597          	auipc	a1,0x23
    ec30:	d6458593          	addi	a1,a1,-668 # 31990 <__clzdi2+0x1778>
    ec34:	00023517          	auipc	a0,0x23
    ec38:	ddc50513          	addi	a0,a0,-548 # 31a10 <__clzdi2+0x17f8>
    ec3c:	b92fe0ef          	jal	ra,cfce <t_printf>
T("$1$salt1234$.pylIeU8A8nhxsVrZNOP..", "$1$salt1234$", "Aa@\xaa 0123456789")
    ec40:	00023597          	auipc	a1,0x23
    ec44:	e1858593          	addi	a1,a1,-488 # 31a58 <__clzdi2+0x1840>
    ec48:	00023517          	auipc	a0,0x23
    ec4c:	e2050513          	addi	a0,a0,-480 # 31a68 <__clzdi2+0x1850>
    ec50:	9e0fd0ef          	jal	ra,be30 <crypt@plt>
    ec54:	872a                	mv	a4,a0
    ec56:	0004f797          	auipc	a5,0x4f
    ec5a:	58278793          	addi	a5,a5,1410 # 5e1d8 <p>
    ec5e:	e398                	sd	a4,0(a5)
    ec60:	0004f797          	auipc	a5,0x4f
    ec64:	57878793          	addi	a5,a5,1400 # 5e1d8 <p>
    ec68:	639c                	ld	a5,0(a5)
    ec6a:	eb91                	bnez	a5,ec7e <crypt_main+0x1e4>
    ec6c:	0004f797          	auipc	a5,0x4f
    ec70:	56c78793          	addi	a5,a5,1388 # 5e1d8 <p>
    ec74:	00023717          	auipc	a4,0x23
    ec78:	c4470713          	addi	a4,a4,-956 # 318b8 <__clzdi2+0x16a0>
    ec7c:	e398                	sd	a4,0(a5)
    ec7e:	0004f797          	auipc	a5,0x4f
    ec82:	55a78793          	addi	a5,a5,1370 # 5e1d8 <p>
    ec86:	639c                	ld	a5,0(a5)
    ec88:	00023597          	auipc	a1,0x23
    ec8c:	df058593          	addi	a1,a1,-528 # 31a78 <__clzdi2+0x1860>
    ec90:	853e                	mv	a0,a5
    ec92:	bcefd0ef          	jal	ra,c060 <strcmp@plt>
    ec96:	87aa                	mv	a5,a0
    ec98:	cb8d                	beqz	a5,ecca <crypt_main+0x230>
    ec9a:	0004f797          	auipc	a5,0x4f
    ec9e:	53e78793          	addi	a5,a5,1342 # 5e1d8 <p>
    eca2:	639c                	ld	a5,0(a5)
    eca4:	00023717          	auipc	a4,0x23
    eca8:	dd470713          	addi	a4,a4,-556 # 31a78 <__clzdi2+0x1860>
    ecac:	86be                	mv	a3,a5
    ecae:	00023617          	auipc	a2,0x23
    ecb2:	daa60613          	addi	a2,a2,-598 # 31a58 <__clzdi2+0x1840>
    ecb6:	00023597          	auipc	a1,0x23
    ecba:	dea58593          	addi	a1,a1,-534 # 31aa0 <__clzdi2+0x1888>
    ecbe:	00023517          	auipc	a0,0x23
    ecc2:	dfa50513          	addi	a0,a0,-518 # 31ab8 <__clzdi2+0x18a0>
    ecc6:	b08fe0ef          	jal	ra,cfce <t_printf>
T("$1$aaaaaaaa$zqksdEYCs/p2VrrMTPU0x0", "$1$aaaaaaaaaaaaaaaaaaaa$", "aaaaaaaaaaaaaaaaaaaa")
    ecca:	00023597          	auipc	a1,0x23
    ecce:	e3658593          	addi	a1,a1,-458 # 31b00 <__clzdi2+0x18e8>
    ecd2:	00023517          	auipc	a0,0x23
    ecd6:	e4e50513          	addi	a0,a0,-434 # 31b20 <__clzdi2+0x1908>
    ecda:	956fd0ef          	jal	ra,be30 <crypt@plt>
    ecde:	872a                	mv	a4,a0
    ece0:	0004f797          	auipc	a5,0x4f
    ece4:	4f878793          	addi	a5,a5,1272 # 5e1d8 <p>
    ece8:	e398                	sd	a4,0(a5)
    ecea:	0004f797          	auipc	a5,0x4f
    ecee:	4ee78793          	addi	a5,a5,1262 # 5e1d8 <p>
    ecf2:	639c                	ld	a5,0(a5)
    ecf4:	eb91                	bnez	a5,ed08 <crypt_main+0x26e>
    ecf6:	0004f797          	auipc	a5,0x4f
    ecfa:	4e278793          	addi	a5,a5,1250 # 5e1d8 <p>
    ecfe:	00023717          	auipc	a4,0x23
    ed02:	bba70713          	addi	a4,a4,-1094 # 318b8 <__clzdi2+0x16a0>
    ed06:	e398                	sd	a4,0(a5)
    ed08:	0004f797          	auipc	a5,0x4f
    ed0c:	4d078793          	addi	a5,a5,1232 # 5e1d8 <p>
    ed10:	639c                	ld	a5,0(a5)
    ed12:	00023597          	auipc	a1,0x23
    ed16:	e2658593          	addi	a1,a1,-474 # 31b38 <__clzdi2+0x1920>
    ed1a:	853e                	mv	a0,a5
    ed1c:	b44fd0ef          	jal	ra,c060 <strcmp@plt>
    ed20:	87aa                	mv	a5,a0
    ed22:	cb8d                	beqz	a5,ed54 <crypt_main+0x2ba>
    ed24:	0004f797          	auipc	a5,0x4f
    ed28:	4b478793          	addi	a5,a5,1204 # 5e1d8 <p>
    ed2c:	639c                	ld	a5,0(a5)
    ed2e:	00023717          	auipc	a4,0x23
    ed32:	e0a70713          	addi	a4,a4,-502 # 31b38 <__clzdi2+0x1920>
    ed36:	86be                	mv	a3,a5
    ed38:	00023617          	auipc	a2,0x23
    ed3c:	dc860613          	addi	a2,a2,-568 # 31b00 <__clzdi2+0x18e8>
    ed40:	00023597          	auipc	a1,0x23
    ed44:	e2058593          	addi	a1,a1,-480 # 31b60 <__clzdi2+0x1948>
    ed48:	00023517          	auipc	a0,0x23
    ed4c:	e3050513          	addi	a0,a0,-464 # 31b78 <__clzdi2+0x1960>
    ed50:	a7efe0ef          	jal	ra,cfce <t_printf>
/* blowfish */
T("*",
    ed54:	00023597          	auipc	a1,0x23
    ed58:	e6c58593          	addi	a1,a1,-404 # 31bc0 <__clzdi2+0x19a8>
    ed5c:	00023517          	auipc	a0,0x23
    ed60:	c0c50513          	addi	a0,a0,-1012 # 31968 <__clzdi2+0x1750>
    ed64:	8ccfd0ef          	jal	ra,be30 <crypt@plt>
    ed68:	872a                	mv	a4,a0
    ed6a:	0004f797          	auipc	a5,0x4f
    ed6e:	46e78793          	addi	a5,a5,1134 # 5e1d8 <p>
    ed72:	e398                	sd	a4,0(a5)
    ed74:	0004f797          	auipc	a5,0x4f
    ed78:	46478793          	addi	a5,a5,1124 # 5e1d8 <p>
    ed7c:	639c                	ld	a5,0(a5)
    ed7e:	eb91                	bnez	a5,ed92 <crypt_main+0x2f8>
    ed80:	0004f797          	auipc	a5,0x4f
    ed84:	45878793          	addi	a5,a5,1112 # 5e1d8 <p>
    ed88:	00023717          	auipc	a4,0x23
    ed8c:	b3070713          	addi	a4,a4,-1232 # 318b8 <__clzdi2+0x16a0>
    ed90:	e398                	sd	a4,0(a5)
    ed92:	0004f797          	auipc	a5,0x4f
    ed96:	44678793          	addi	a5,a5,1094 # 5e1d8 <p>
    ed9a:	639c                	ld	a5,0(a5)
    ed9c:	00023597          	auipc	a1,0x23
    eda0:	b1c58593          	addi	a1,a1,-1252 # 318b8 <__clzdi2+0x16a0>
    eda4:	853e                	mv	a0,a5
    eda6:	abafd0ef          	jal	ra,c060 <strcmp@plt>
    edaa:	87aa                	mv	a5,a0
    edac:	cb8d                	beqz	a5,edde <crypt_main+0x344>
    edae:	0004f797          	auipc	a5,0x4f
    edb2:	42a78793          	addi	a5,a5,1066 # 5e1d8 <p>
    edb6:	639c                	ld	a5,0(a5)
    edb8:	00023717          	auipc	a4,0x23
    edbc:	b0070713          	addi	a4,a4,-1280 # 318b8 <__clzdi2+0x16a0>
    edc0:	86be                	mv	a3,a5
    edc2:	00023617          	auipc	a2,0x23
    edc6:	dfe60613          	addi	a2,a2,-514 # 31bc0 <__clzdi2+0x19a8>
    edca:	00023597          	auipc	a1,0x23
    edce:	bc658593          	addi	a1,a1,-1082 # 31990 <__clzdi2+0x1778>
    edd2:	00023517          	auipc	a0,0x23
    edd6:	e0e50513          	addi	a0,a0,-498 # 31be0 <__clzdi2+0x19c8>
    edda:	9f4fe0ef          	jal	ra,cfce <t_printf>
	"$2a$00$0123456789012345678901", "")
T("*",
    edde:	00023597          	auipc	a1,0x23
    ede2:	e4a58593          	addi	a1,a1,-438 # 31c28 <__clzdi2+0x1a10>
    ede6:	00023517          	auipc	a0,0x23
    edea:	b8250513          	addi	a0,a0,-1150 # 31968 <__clzdi2+0x1750>
    edee:	842fd0ef          	jal	ra,be30 <crypt@plt>
    edf2:	872a                	mv	a4,a0
    edf4:	0004f797          	auipc	a5,0x4f
    edf8:	3e478793          	addi	a5,a5,996 # 5e1d8 <p>
    edfc:	e398                	sd	a4,0(a5)
    edfe:	0004f797          	auipc	a5,0x4f
    ee02:	3da78793          	addi	a5,a5,986 # 5e1d8 <p>
    ee06:	639c                	ld	a5,0(a5)
    ee08:	eb91                	bnez	a5,ee1c <crypt_main+0x382>
    ee0a:	0004f797          	auipc	a5,0x4f
    ee0e:	3ce78793          	addi	a5,a5,974 # 5e1d8 <p>
    ee12:	00023717          	auipc	a4,0x23
    ee16:	aa670713          	addi	a4,a4,-1370 # 318b8 <__clzdi2+0x16a0>
    ee1a:	e398                	sd	a4,0(a5)
    ee1c:	0004f797          	auipc	a5,0x4f
    ee20:	3bc78793          	addi	a5,a5,956 # 5e1d8 <p>
    ee24:	639c                	ld	a5,0(a5)
    ee26:	00023597          	auipc	a1,0x23
    ee2a:	a9258593          	addi	a1,a1,-1390 # 318b8 <__clzdi2+0x16a0>
    ee2e:	853e                	mv	a0,a5
    ee30:	a30fd0ef          	jal	ra,c060 <strcmp@plt>
    ee34:	87aa                	mv	a5,a0
    ee36:	cb8d                	beqz	a5,ee68 <crypt_main+0x3ce>
    ee38:	0004f797          	auipc	a5,0x4f
    ee3c:	3a078793          	addi	a5,a5,928 # 5e1d8 <p>
    ee40:	639c                	ld	a5,0(a5)
    ee42:	00023717          	auipc	a4,0x23
    ee46:	a7670713          	addi	a4,a4,-1418 # 318b8 <__clzdi2+0x16a0>
    ee4a:	86be                	mv	a3,a5
    ee4c:	00023617          	auipc	a2,0x23
    ee50:	ddc60613          	addi	a2,a2,-548 # 31c28 <__clzdi2+0x1a10>
    ee54:	00023597          	auipc	a1,0x23
    ee58:	b3c58593          	addi	a1,a1,-1220 # 31990 <__clzdi2+0x1778>
    ee5c:	00023517          	auipc	a0,0x23
    ee60:	dec50513          	addi	a0,a0,-532 # 31c48 <__clzdi2+0x1a30>
    ee64:	96afe0ef          	jal	ra,cfce <t_printf>
	"$2a$08$01234567890123456789", "")
T("$2a$04$012345678901234567890u8auMTJmy9uQv1pCMPSGmRjXec5nzCf6",
    ee68:	00023597          	auipc	a1,0x23
    ee6c:	e2858593          	addi	a1,a1,-472 # 31c90 <__clzdi2+0x1a78>
    ee70:	00023517          	auipc	a0,0x23
    ee74:	af850513          	addi	a0,a0,-1288 # 31968 <__clzdi2+0x1750>
    ee78:	fb9fc0ef          	jal	ra,be30 <crypt@plt>
    ee7c:	872a                	mv	a4,a0
    ee7e:	0004f797          	auipc	a5,0x4f
    ee82:	35a78793          	addi	a5,a5,858 # 5e1d8 <p>
    ee86:	e398                	sd	a4,0(a5)
    ee88:	0004f797          	auipc	a5,0x4f
    ee8c:	35078793          	addi	a5,a5,848 # 5e1d8 <p>
    ee90:	639c                	ld	a5,0(a5)
    ee92:	eb91                	bnez	a5,eea6 <crypt_main+0x40c>
    ee94:	0004f797          	auipc	a5,0x4f
    ee98:	34478793          	addi	a5,a5,836 # 5e1d8 <p>
    ee9c:	00023717          	auipc	a4,0x23
    eea0:	a1c70713          	addi	a4,a4,-1508 # 318b8 <__clzdi2+0x16a0>
    eea4:	e398                	sd	a4,0(a5)
    eea6:	0004f797          	auipc	a5,0x4f
    eeaa:	33278793          	addi	a5,a5,818 # 5e1d8 <p>
    eeae:	639c                	ld	a5,0(a5)
    eeb0:	00023597          	auipc	a1,0x23
    eeb4:	e0058593          	addi	a1,a1,-512 # 31cb0 <__clzdi2+0x1a98>
    eeb8:	853e                	mv	a0,a5
    eeba:	9a6fd0ef          	jal	ra,c060 <strcmp@plt>
    eebe:	87aa                	mv	a5,a0
    eec0:	cb8d                	beqz	a5,eef2 <crypt_main+0x458>
    eec2:	0004f797          	auipc	a5,0x4f
    eec6:	31678793          	addi	a5,a5,790 # 5e1d8 <p>
    eeca:	639c                	ld	a5,0(a5)
    eecc:	00023717          	auipc	a4,0x23
    eed0:	de470713          	addi	a4,a4,-540 # 31cb0 <__clzdi2+0x1a98>
    eed4:	86be                	mv	a3,a5
    eed6:	00023617          	auipc	a2,0x23
    eeda:	dba60613          	addi	a2,a2,-582 # 31c90 <__clzdi2+0x1a78>
    eede:	00023597          	auipc	a1,0x23
    eee2:	ab258593          	addi	a1,a1,-1358 # 31990 <__clzdi2+0x1778>
    eee6:	00023517          	auipc	a0,0x23
    eeea:	e0a50513          	addi	a0,a0,-502 # 31cf0 <__clzdi2+0x1ad8>
